GAS LISTING /tmp/ccdwgu9Q.s 			page 1


   1              		.file	"riscv.cpp"
   2              		.option pic
   3              		.option norelax
   4              		.text
   5              	.Ltext0:
   6              		.align	2
   7              		.globl	_ZN5Riscv10popSppSpieEv
   9              	_ZN5Riscv10popSppSpieEv:
  10              	.LFB32:
  11              		.file 1 "src/riscv.cpp"
   1:src/riscv.cpp **** //
   2:src/riscv.cpp **** // Created by os on 7/19/25.
   3:src/riscv.cpp **** //
   4:src/riscv.cpp **** 
   5:src/riscv.cpp **** #include "../h/riscv.hpp"
   6:src/riscv.cpp **** #include "../lib/console.h"
   7:src/riscv.cpp **** #include "../h/tcb.hpp"
   8:src/riscv.cpp **** #include "../lib/mem.h"   //dok ne uvezem svoj MemmoryAllocator
   9:src/riscv.cpp **** 
  10:src/riscv.cpp **** void Riscv::popSppSpie() {
  12              		.loc 1 10 26
  13              		.cfi_startproc
  14 0000 130101FF 		addi	sp,sp,-16
  15              		.cfi_def_cfa_offset 16
  16 0004 23348100 		sd	s0,8(sp)
  17              		.cfi_offset 8, -8
  18 0008 13040101 		addi	s0,sp,16
  19              		.cfi_def_cfa 8, 0
  11:src/riscv.cpp ****     __asm__ volatile("csrw sepc, ra");
  20              		.loc 1 11 5
  21              		.loc 1 11 38 is_stmt 0
  22              	#APP
  23              	# 11 "src/riscv.cpp" 1
  12              	    __asm__ volatile("sret");
  24              		csrw sepc, ra
  25              	# 0 "" 2
  26              		.loc 1 12 5 is_stmt 1
  27              		.loc 1 12 29 is_stmt 0
  28              	# 12 "src/riscv.cpp" 1
  13              	}
  29              		sret
  30              	# 0 "" 2
  31              		.loc 1 13 1
  32              	#NO_APP
  33 0014 03348100 		ld	s0,8(sp)
  34              		.cfi_restore 8
  35              		.cfi_def_cfa 2, 16
  36 0018 13010101 		addi	sp,sp,16
  37              		.cfi_def_cfa_offset 0
  38 001c 67800000 		jr	ra
  39              		.cfi_endproc
  40              	.LFE32:
  42              		.align	2
  43              		.globl	_ZN5Riscv20handleSupervisorTrapEv
  45              	_ZN5Riscv20handleSupervisorTrapEv:
  46              	.LFB33:
  14:src/riscv.cpp **** 
GAS LISTING /tmp/ccdwgu9Q.s 			page 2


  15:src/riscv.cpp **** void Riscv::handleSupervisorTrap() {
  47              		.loc 1 15 36 is_stmt 1
  48              		.cfi_startproc
  49 0020 130101FB 		addi	sp,sp,-80
  50              		.cfi_def_cfa_offset 80
  51 0024 23341104 		sd	ra,72(sp)
  52 0028 23308104 		sd	s0,64(sp)
  53 002c 233C9102 		sd	s1,56(sp)
  54              		.cfi_offset 1, -8
  55              		.cfi_offset 8, -16
  56              		.cfi_offset 9, -24
  57 0030 13040105 		addi	s0,sp,80
  58              		.cfi_def_cfa 8, 0
  16:src/riscv.cpp ****     uint64 scause = r_scause();
  59              		.loc 1 16 5
  60              	.LBB19:
  61              	.LBB20:
  62              		.file 2 "src/../h/riscv.hpp"
   1:src/../h/riscv.hpp **** //
   2:src/../h/riscv.hpp **** // Created by os on 7/19/25.
   3:src/../h/riscv.hpp **** //
   4:src/../h/riscv.hpp **** 
   5:src/../h/riscv.hpp **** #ifndef OSPROJECT_RISCV_HPP
   6:src/../h/riscv.hpp **** #define OSPROJECT_RISCV_HPP
   7:src/../h/riscv.hpp **** 
   8:src/../h/riscv.hpp **** #include "../lib/hw.h"
   9:src/../h/riscv.hpp **** 
  10:src/../h/riscv.hpp **** class Riscv {
  11:src/../h/riscv.hpp **** public:
  12:src/../h/riscv.hpp ****     // pop sstatus.spp and sstatus.spie bits (has to be a non inline function)
  13:src/../h/riscv.hpp ****     static void popSppSpie();
  14:src/../h/riscv.hpp **** 
  15:src/../h/riscv.hpp ****     // read register scause
  16:src/../h/riscv.hpp ****     static uint64 r_scause();
  17:src/../h/riscv.hpp **** 
  18:src/../h/riscv.hpp ****     // write register scause
  19:src/../h/riscv.hpp ****     static void w_scause(uint64 scause);
  20:src/../h/riscv.hpp **** 
  21:src/../h/riscv.hpp ****     // read register sepc
  22:src/../h/riscv.hpp ****     static uint64 r_sepc();
  23:src/../h/riscv.hpp **** 
  24:src/../h/riscv.hpp ****     // write register sepc
  25:src/../h/riscv.hpp ****     static void w_sepc(uint64 sepc);
  26:src/../h/riscv.hpp **** 
  27:src/../h/riscv.hpp ****     // read register stvec
  28:src/../h/riscv.hpp ****     static uint64 r_stvec();
  29:src/../h/riscv.hpp **** 
  30:src/../h/riscv.hpp ****     // write register stvec
  31:src/../h/riscv.hpp ****     static void w_stvec(uint64 stvec);
  32:src/../h/riscv.hpp **** 
  33:src/../h/riscv.hpp ****     // read register stval
  34:src/../h/riscv.hpp ****     static uint64 r_stval();
  35:src/../h/riscv.hpp **** 
  36:src/../h/riscv.hpp ****     // write register stval
  37:src/../h/riscv.hpp ****     static void w_stval(uint64 stval);
  38:src/../h/riscv.hpp **** 
  39:src/../h/riscv.hpp ****     enum BitMaskSip
GAS LISTING /tmp/ccdwgu9Q.s 			page 3


  40:src/../h/riscv.hpp ****     {
  41:src/../h/riscv.hpp ****         SIP_SSIE = (1 << 1),
  42:src/../h/riscv.hpp ****         SIP_STIE = (1 << 5),
  43:src/../h/riscv.hpp ****         SIP_SEIE = (1 << 9),
  44:src/../h/riscv.hpp ****     };
  45:src/../h/riscv.hpp **** 
  46:src/../h/riscv.hpp ****     // mask set register sip
  47:src/../h/riscv.hpp ****     static void ms_sip(uint64 mask);
  48:src/../h/riscv.hpp **** 
  49:src/../h/riscv.hpp ****     // mask clear register sip
  50:src/../h/riscv.hpp ****     static void mc_sip(uint64 mask);
  51:src/../h/riscv.hpp **** 
  52:src/../h/riscv.hpp ****     // read register sip
  53:src/../h/riscv.hpp ****     static uint64 r_sip();
  54:src/../h/riscv.hpp **** 
  55:src/../h/riscv.hpp ****     // write register sip
  56:src/../h/riscv.hpp ****     static void w_sip(uint64 sip);
  57:src/../h/riscv.hpp **** 
  58:src/../h/riscv.hpp ****     enum BitMaskSstatus
  59:src/../h/riscv.hpp ****     {
  60:src/../h/riscv.hpp ****         SSTATUS_SIE = (1 << 1),
  61:src/../h/riscv.hpp ****         SSTATUS_SPIE = (1 << 5),
  62:src/../h/riscv.hpp ****         SSTATUS_SPP = (1 << 8),
  63:src/../h/riscv.hpp ****     };
  64:src/../h/riscv.hpp **** 
  65:src/../h/riscv.hpp ****     // mask set register sstatus
  66:src/../h/riscv.hpp ****     static void ms_sstatus(uint64 mask);
  67:src/../h/riscv.hpp **** 
  68:src/../h/riscv.hpp ****     // mask clear register sstatus
  69:src/../h/riscv.hpp ****     static void mc_sstatus(uint64 mask);
  70:src/../h/riscv.hpp **** 
  71:src/../h/riscv.hpp ****     // read register sstatus
  72:src/../h/riscv.hpp ****     static uint64 r_sstatus();
  73:src/../h/riscv.hpp **** 
  74:src/../h/riscv.hpp ****     // write register sstatus
  75:src/../h/riscv.hpp ****     static void w_sstatus(uint64 sstatus);
  76:src/../h/riscv.hpp **** 
  77:src/../h/riscv.hpp ****     // supervisor trap
  78:src/../h/riscv.hpp ****     static void supervisorTrap();
  79:src/../h/riscv.hpp **** 
  80:src/../h/riscv.hpp **** private:
  81:src/../h/riscv.hpp **** 
  82:src/../h/riscv.hpp ****     // supervisor trap handler
  83:src/../h/riscv.hpp ****     static void handleSupervisorTrap();
  84:src/../h/riscv.hpp **** 
  85:src/../h/riscv.hpp **** };
  86:src/../h/riscv.hpp **** 
  87:src/../h/riscv.hpp **** 
  88:src/../h/riscv.hpp **** inline uint64 Riscv::r_scause()
  89:src/../h/riscv.hpp **** {
  90:src/../h/riscv.hpp ****     uint64 volatile scause;
  63              		.loc 2 90 5
  91:src/../h/riscv.hpp ****     __asm__ volatile ("csrr %[scause], scause" : [scause] "=r"(scause));
  64              		.loc 2 91 5
  65              		.loc 2 91 72 is_stmt 0
  66              	#APP
  67              	# 91 "src/../h/riscv.hpp" 1
GAS LISTING /tmp/ccdwgu9Q.s 			page 4


  92              	    return scause;
  68              		csrr a5, scause
  69              	# 0 "" 2
  70              	#NO_APP
  71 0038 2334F4FC 		sd	a5,-56(s0)
  72              		.loc 2 92 5 is_stmt 1
  73              		.loc 2 92 12 is_stmt 0
  74 003c 033784FC 		ld	a4,-56(s0)
  75              	.LVL0:
  76              	.LBE20:
  77              	.LBE19:
  17:src/riscv.cpp ****     if(scause == 0x0000000000000008UL || scause == 0x0000000000000009UL) {
  78              		.loc 1 17 5 is_stmt 1
  79              	.LBB21:
  80              		.loc 1 17 39 is_stmt 0
  81 0040 930687FF 		addi	a3,a4,-8
  82              		.loc 1 17 5
  83 0044 93071000 		li	a5,1
  84 0048 63F4D702 		bleu	a3,a5,.L12
  18:src/riscv.cpp ****         uint64 volatile sepc = r_sepc() + 4;
  19:src/riscv.cpp ****         uint64 volatile sstatus = r_sstatus();
  20:src/riscv.cpp ****         uint64 sysCallCode;
  21:src/riscv.cpp ****         __asm__ volatile("mv %0, a0" : "=r"(sysCallCode));
  22:src/riscv.cpp ****         switch (sysCallCode) {
  23:src/riscv.cpp ****             case 0x01: { //mem_alloc
  24:src/riscv.cpp ****                 size_t size;
  25:src/riscv.cpp ****                 __asm__ volatile("mv %0, a1" : "=r"(size));
  26:src/riscv.cpp ****                 void* returnAdr = __mem_alloc(size);
  27:src/riscv.cpp ****                 __asm__ volatile("sd %0, 80(s0)" : : "r"(returnAdr));
  28:src/riscv.cpp ****                 break;
  29:src/riscv.cpp ****             }
  30:src/riscv.cpp ****             case 0x02: { //mem_free
  31:src/riscv.cpp ****                 void* adrPtr;
  32:src/riscv.cpp ****                 __asm__ volatile("mv %0, a1" : "=r"(adrPtr));
  33:src/riscv.cpp ****                 int retVal = __mem_free(adrPtr);
  34:src/riscv.cpp ****                 __asm__ volatile("sd %0, 80(s0)" : : "r"(retVal));
  35:src/riscv.cpp ****                 break;
  36:src/riscv.cpp ****             }
  37:src/riscv.cpp ****             case 0x11: { //thread_create
  38:src/riscv.cpp ****                 TCB** handle;
  39:src/riscv.cpp ****                 TCB::Body body;
  40:src/riscv.cpp ****                 void* arg;
  41:src/riscv.cpp ****                 char* stack_space;
  42:src/riscv.cpp ****                 __asm__ volatile("mv %0, a1" : "=r"(handle));
  43:src/riscv.cpp ****                 __asm__ volatile("mv %0, a2" : "=r"(body));
  44:src/riscv.cpp ****                 __asm__ volatile("mv %0, a3" : "=r"(arg));
  45:src/riscv.cpp ****                 __asm__ volatile("mv %0, a4" : "=r"(stack_space));
  46:src/riscv.cpp ****                 *handle = TCB::createThread(body, arg, stack_space);
  47:src/riscv.cpp ****                 int retVal = (*handle != nullptr) ? 0 : -1;
  48:src/riscv.cpp ****                 __asm__ volatile("sd %0, 80(s0)" : : "r"(retVal));
  49:src/riscv.cpp ****                 break;
  50:src/riscv.cpp ****             }
  51:src/riscv.cpp ****             case 0x12: { //thread_exit
  52:src/riscv.cpp ****                 break;
  53:src/riscv.cpp ****             }
  54:src/riscv.cpp ****             case 0x13: { //thread_dispatch
  55:src/riscv.cpp ****                 break;
GAS LISTING /tmp/ccdwgu9Q.s 			page 5


  56:src/riscv.cpp ****             }
  57:src/riscv.cpp ****             case 0x21: { //sem_open
  58:src/riscv.cpp ****                 break;
  59:src/riscv.cpp ****             }
  60:src/riscv.cpp ****             case 0x22: { //sem_close
  61:src/riscv.cpp ****                 break;
  62:src/riscv.cpp ****             }
  63:src/riscv.cpp ****             case 0x23: { //sem_wait
  64:src/riscv.cpp ****                 break;
  65:src/riscv.cpp ****             }
  66:src/riscv.cpp ****             case 0x24: { //sem_signal
  67:src/riscv.cpp ****                 break;
  68:src/riscv.cpp ****             }
  69:src/riscv.cpp ****             case 0x26: { //sem_trywait
  70:src/riscv.cpp ****                 break;
  71:src/riscv.cpp ****             }
  72:src/riscv.cpp **** //            case 0x41: { //getc
  73:src/riscv.cpp **** //                break;
  74:src/riscv.cpp **** //            }
  75:src/riscv.cpp **** //            case 0x42: { //putc
  76:src/riscv.cpp **** //                break;
  77:src/riscv.cpp **** //            }
  78:src/riscv.cpp ****         }
  79:src/riscv.cpp ****         w_sstatus(sstatus);
  80:src/riscv.cpp ****         w_sepc(sepc);
  81:src/riscv.cpp ****     } else if(scause == 0x8000000000000009UL) {
  85              		.loc 1 81 12 is_stmt 1
  86 004c 9307F0FF 		li	a5,-1
  87 0050 9397F703 		slli	a5,a5,63
  88 0054 93879700 		addi	a5,a5,9
  89 0058 6304F70C 		beq	a4,a5,.L13
  90              	.LVL1:
  91              	.L3:
  92              	.LBE21:
  82:src/riscv.cpp ****         console_handler();
  83:src/riscv.cpp ****     } else {
  84:src/riscv.cpp ****         //error
  85:src/riscv.cpp ****     }
  86:src/riscv.cpp **** }
  93              		.loc 1 86 1 is_stmt 0
  94 005c 83308104 		ld	ra,72(sp)
  95              		.cfi_remember_state
  96              		.cfi_restore 1
  97 0060 03340104 		ld	s0,64(sp)
  98              		.cfi_restore 8
  99              		.cfi_def_cfa 2, 80
 100 0064 83348103 		ld	s1,56(sp)
 101              		.cfi_restore 9
 102 0068 13010105 		addi	sp,sp,80
 103              		.cfi_def_cfa_offset 0
 104 006c 67800000 		jr	ra
 105              	.LVL2:
 106              	.L12:
 107              		.cfi_restore_state
 108              	.LBB41:
 109              	.LBB22:
  18:src/riscv.cpp ****         uint64 volatile sepc = r_sepc() + 4;
GAS LISTING /tmp/ccdwgu9Q.s 			page 6


 110              		.loc 1 18 9 is_stmt 1
 111              	.LBB23:
 112              	.LBB24:
  93:src/../h/riscv.hpp **** }
  94:src/../h/riscv.hpp **** 
  95:src/../h/riscv.hpp **** inline void Riscv::w_scause(uint64 scause)
  96:src/../h/riscv.hpp **** {
  97:src/../h/riscv.hpp ****     __asm__ volatile ("csrw scause, %[scause]" : : [scause] "r"(scause));
  98:src/../h/riscv.hpp **** }
  99:src/../h/riscv.hpp **** 
 100:src/../h/riscv.hpp **** inline uint64 Riscv::r_sepc()
 101:src/../h/riscv.hpp **** {
 102:src/../h/riscv.hpp ****     uint64 volatile sepc;
 113              		.loc 2 102 5
 103:src/../h/riscv.hpp ****     __asm__ volatile ("csrr %[sepc], sepc" : [sepc] "=r"(sepc));
 114              		.loc 2 103 5
 115              		.loc 2 103 64 is_stmt 0
 116              	#APP
 117              	# 103 "src/../h/riscv.hpp" 1
 104              	    return sepc;
 118              		csrr a5, sepc
 119              	# 0 "" 2
 120              	#NO_APP
 121 0074 233CF4FC 		sd	a5,-40(s0)
 122              		.loc 2 104 5 is_stmt 1
 123              		.loc 2 104 12 is_stmt 0
 124 0078 833784FD 		ld	a5,-40(s0)
 125              	.LBE24:
 126              	.LBE23:
  18:src/riscv.cpp ****         uint64 volatile sstatus = r_sstatus();
 127              		.loc 1 18 41
 128 007c 93874700 		addi	a5,a5,4
  18:src/riscv.cpp ****         uint64 volatile sstatus = r_sstatus();
 129              		.loc 1 18 43
 130 0080 233CF4FA 		sd	a5,-72(s0)
  19:src/riscv.cpp ****         uint64 sysCallCode;
 131              		.loc 1 19 9 is_stmt 1
 132              	.LBB25:
 133              	.LBB26:
 105:src/../h/riscv.hpp **** }
 106:src/../h/riscv.hpp **** 
 107:src/../h/riscv.hpp **** inline void Riscv::w_sepc(uint64 sepc)
 108:src/../h/riscv.hpp **** {
 109:src/../h/riscv.hpp ****     __asm__ volatile ("csrw sepc, %[sepc]" : : [sepc] "r"(sepc));
 110:src/../h/riscv.hpp **** }
 111:src/../h/riscv.hpp **** 
 112:src/../h/riscv.hpp **** inline uint64 Riscv::r_stvec()
 113:src/../h/riscv.hpp **** {
 114:src/../h/riscv.hpp ****     uint64 volatile stvec;
 115:src/../h/riscv.hpp ****     __asm__ volatile ("csrr %[stvec], stvec" : [stvec] "=r"(stvec));
 116:src/../h/riscv.hpp ****     return stvec;
 117:src/../h/riscv.hpp **** }
 118:src/../h/riscv.hpp **** 
 119:src/../h/riscv.hpp **** inline void Riscv::w_stvec(uint64 stvec)
 120:src/../h/riscv.hpp **** {
 121:src/../h/riscv.hpp ****     __asm__ volatile ("csrw stvec, %[stvec]" : : [stvec] "r"(stvec));
 122:src/../h/riscv.hpp **** }
GAS LISTING /tmp/ccdwgu9Q.s 			page 7


 123:src/../h/riscv.hpp **** 
 124:src/../h/riscv.hpp **** inline uint64 Riscv::r_stval()
 125:src/../h/riscv.hpp **** {
 126:src/../h/riscv.hpp ****     uint64 volatile stval;
 127:src/../h/riscv.hpp ****     __asm__ volatile ("csrr %[stval], stval" : [stval] "=r"(stval));
 128:src/../h/riscv.hpp ****     return stval;
 129:src/../h/riscv.hpp **** }
 130:src/../h/riscv.hpp **** 
 131:src/../h/riscv.hpp **** inline void Riscv::w_stval(uint64 stval)
 132:src/../h/riscv.hpp **** {
 133:src/../h/riscv.hpp ****     __asm__ volatile ("csrw stval, %[stval]" : : [stval] "r"(stval));
 134:src/../h/riscv.hpp **** }
 135:src/../h/riscv.hpp **** 
 136:src/../h/riscv.hpp **** inline void Riscv::ms_sip(uint64 mask)
 137:src/../h/riscv.hpp **** {
 138:src/../h/riscv.hpp ****     __asm__ volatile ("csrs sip, %[mask]" : : [mask] "r"(mask));
 139:src/../h/riscv.hpp **** }
 140:src/../h/riscv.hpp **** 
 141:src/../h/riscv.hpp **** inline void Riscv::mc_sip(uint64 mask)
 142:src/../h/riscv.hpp **** {
 143:src/../h/riscv.hpp ****     __asm__ volatile ("csrc sip, %[mask]" : : [mask] "r"(mask));
 144:src/../h/riscv.hpp **** }
 145:src/../h/riscv.hpp **** 
 146:src/../h/riscv.hpp **** inline uint64 Riscv::r_sip()
 147:src/../h/riscv.hpp **** {
 148:src/../h/riscv.hpp ****     uint64 volatile sip;
 149:src/../h/riscv.hpp ****     __asm__ volatile ("csrr %[sip], sip" : [sip] "=r"(sip));
 150:src/../h/riscv.hpp ****     return sip;
 151:src/../h/riscv.hpp **** }
 152:src/../h/riscv.hpp **** 
 153:src/../h/riscv.hpp **** inline void Riscv::w_sip(uint64 sip)
 154:src/../h/riscv.hpp **** {
 155:src/../h/riscv.hpp ****     __asm__ volatile ("csrw sip, %[sip]" : : [sip] "r"(sip));
 156:src/../h/riscv.hpp **** }
 157:src/../h/riscv.hpp **** 
 158:src/../h/riscv.hpp **** inline void Riscv::ms_sstatus(uint64 mask)
 159:src/../h/riscv.hpp **** {
 160:src/../h/riscv.hpp ****     __asm__ volatile ("csrs sstatus, %[mask]" : : [mask] "r"(mask));
 161:src/../h/riscv.hpp **** }
 162:src/../h/riscv.hpp **** 
 163:src/../h/riscv.hpp **** inline void Riscv::mc_sstatus(uint64 mask)
 164:src/../h/riscv.hpp **** {
 165:src/../h/riscv.hpp ****     __asm__ volatile ("csrc sstatus, %[mask]" : : [mask] "r"(mask));
 166:src/../h/riscv.hpp **** }
 167:src/../h/riscv.hpp **** 
 168:src/../h/riscv.hpp **** inline uint64 Riscv::r_sstatus()
 169:src/../h/riscv.hpp **** {
 170:src/../h/riscv.hpp ****     uint64 volatile sstatus;
 134              		.loc 2 170 5
 171:src/../h/riscv.hpp ****     __asm__ volatile ("csrr %[sstatus], sstatus" : [sstatus] "=r"(sstatus));
 135              		.loc 2 171 5
 136              		.loc 2 171 76 is_stmt 0
 137              	#APP
 138              	# 171 "src/../h/riscv.hpp" 1
 172              	    return sstatus;
 139              		csrr a5, sstatus
 140              	# 0 "" 2
GAS LISTING /tmp/ccdwgu9Q.s 			page 8


 141              	#NO_APP
 142 0088 2338F4FC 		sd	a5,-48(s0)
 143              		.loc 2 172 5 is_stmt 1
 144              		.loc 2 172 12 is_stmt 0
 145 008c 833704FD 		ld	a5,-48(s0)
 146              	.LBE26:
 147              	.LBE25:
  19:src/riscv.cpp ****         uint64 sysCallCode;
 148              		.loc 1 19 45
 149 0090 2330F4FC 		sd	a5,-64(s0)
  20:src/riscv.cpp ****         __asm__ volatile("mv %0, a0" : "=r"(sysCallCode));
 150              		.loc 1 20 9 is_stmt 1
  21:src/riscv.cpp ****         switch (sysCallCode) {
 151              		.loc 1 21 9
  21:src/riscv.cpp ****         switch (sysCallCode) {
 152              		.loc 1 21 58 is_stmt 0
 153              	#APP
 154              	# 21 "src/riscv.cpp" 1
 155              		mv a5, a0
 156              	# 0 "" 2
 157              	.LVL3:
  22:src/riscv.cpp ****             case 0x01: { //mem_alloc
 158              		.loc 1 22 9 is_stmt 1
 159              	#NO_APP
 160              	.LBB27:
 161 0098 13072000 		li	a4,2
 162              	.LVL4:
 163 009c 638EE702 		beq	a5,a4,.L5
 164 00a0 13071001 		li	a4,17
 165 00a4 6384E704 		beq	a5,a4,.L6
 166 00a8 13071000 		li	a4,1
 167 00ac 638CE700 		beq	a5,a4,.L14
 168              	.LVL5:
 169              	.L7:
 170              	.LBE27:
  79:src/riscv.cpp ****         w_sepc(sepc);
 171              		.loc 1 79 9
  79:src/riscv.cpp ****         w_sepc(sepc);
 172              		.loc 1 79 18 is_stmt 0
 173 00b0 833704FC 		ld	a5,-64(s0)
 174              	.LVL6:
 175              	.LBB31:
 176              	.LBB32:
 173:src/../h/riscv.hpp **** }
 174:src/../h/riscv.hpp **** 
 175:src/../h/riscv.hpp **** inline void Riscv::w_sstatus(uint64 sstatus)
 176:src/../h/riscv.hpp **** {
 177:src/../h/riscv.hpp ****     __asm__ volatile ("csrw sstatus, %[sstatus]" : : [sstatus] "r"(sstatus));
 177              		.loc 2 177 5 is_stmt 1
 178              		.loc 2 177 77 is_stmt 0
 179              	#APP
 180              	# 177 "src/../h/riscv.hpp" 1
 178              	}
 181              		csrw sstatus, a5
 182              	# 0 "" 2
 183              	.LVL7:
 184              	#NO_APP
GAS LISTING /tmp/ccdwgu9Q.s 			page 9


 185              	.LBE32:
 186              	.LBE31:
  80:src/riscv.cpp ****     } else if(scause == 0x8000000000000009UL) {
 187              		.loc 1 80 9 is_stmt 1
  80:src/riscv.cpp ****     } else if(scause == 0x8000000000000009UL) {
 188              		.loc 1 80 15 is_stmt 0
 189 00b8 833784FB 		ld	a5,-72(s0)
 190              	.LVL8:
 191              	.LBB33:
 192              	.LBB34:
 109:src/../h/riscv.hpp **** }
 193              		.loc 2 109 5 is_stmt 1
 109:src/../h/riscv.hpp **** }
 194              		.loc 2 109 65 is_stmt 0
 195              	#APP
 196              	# 109 "src/../h/riscv.hpp" 1
 110:src/../h/riscv.hpp **** 
 197              		csrw sepc, a5
 198              	# 0 "" 2
 199              		.loc 2 110 1
 200              	#NO_APP
 201 00c0 6FF0DFF9 		j	.L3
 202              	.LVL9:
 203              	.L14:
 204              	.LBE34:
 205              	.LBE33:
 206              	.LBE22:
 207              	.LBE41:
  23:src/riscv.cpp ****                 size_t size;
 208              		.loc 1 23 13 is_stmt 1
  23:src/riscv.cpp ****                 size_t size;
 209              		.loc 1 23 24
 210              	.LBB42:
 211              	.LBB38:
 212              	.LBB35:
 213              	.LBB28:
  24:src/riscv.cpp ****                 __asm__ volatile("mv %0, a1" : "=r"(size));
 214              		.loc 1 24 17
  25:src/riscv.cpp ****                 void* returnAdr = __mem_alloc(size);
 215              		.loc 1 25 17
  25:src/riscv.cpp ****                 void* returnAdr = __mem_alloc(size);
 216              		.loc 1 25 59 is_stmt 0
 217              	#APP
 218              	# 25 "src/riscv.cpp" 1
 219              		mv a0, a1
 220              	# 0 "" 2
 221              	.LVL10:
  26:src/riscv.cpp ****                 __asm__ volatile("sd %0, 80(s0)" : : "r"(returnAdr));
 222              		.loc 1 26 17 is_stmt 1
  26:src/riscv.cpp ****                 __asm__ volatile("sd %0, 80(s0)" : : "r"(returnAdr));
 223              		.loc 1 26 46 is_stmt 0
 224              	#NO_APP
 225 00c8 97000000 		call	__mem_alloc@plt
 225      E7800000 
 226              	.LVL11:
  27:src/riscv.cpp ****                 break;
 227              		.loc 1 27 17 is_stmt 1
GAS LISTING /tmp/ccdwgu9Q.s 			page 10


  27:src/riscv.cpp ****                 break;
 228              		.loc 1 27 69 is_stmt 0
 229              	#APP
 230              	# 27 "src/riscv.cpp" 1
  28:src/riscv.cpp ****             }
 231              		sd a0, 80(s0)
 232              	# 0 "" 2
 233              		.loc 1 28 17 is_stmt 1
 234              	#NO_APP
 235 00d4 6FF0DFFD 		j	.L7
 236              	.LVL12:
 237              	.L5:
 238              	.LBE28:
 239              	.LBE35:
 240              	.LBE38:
 241              	.LBE42:
  30:src/riscv.cpp ****                 void* adrPtr;
 242              		.loc 1 30 13
  30:src/riscv.cpp ****                 void* adrPtr;
 243              		.loc 1 30 24
 244              	.LBB43:
 245              	.LBB39:
 246              	.LBB36:
 247              	.LBB29:
  31:src/riscv.cpp ****                 __asm__ volatile("mv %0, a1" : "=r"(adrPtr));
 248              		.loc 1 31 17
  32:src/riscv.cpp ****                 int retVal = __mem_free(adrPtr);
 249              		.loc 1 32 17
  32:src/riscv.cpp ****                 int retVal = __mem_free(adrPtr);
 250              		.loc 1 32 61 is_stmt 0
 251              	#APP
 252              	# 32 "src/riscv.cpp" 1
 253              		mv a0, a1
 254              	# 0 "" 2
 255              	.LVL13:
  33:src/riscv.cpp ****                 __asm__ volatile("sd %0, 80(s0)" : : "r"(retVal));
 256              		.loc 1 33 17 is_stmt 1
  33:src/riscv.cpp ****                 __asm__ volatile("sd %0, 80(s0)" : : "r"(retVal));
 257              		.loc 1 33 40 is_stmt 0
 258              	#NO_APP
 259 00dc 97000000 		call	__mem_free@plt
 259      E7800000 
 260              	.LVL14:
  34:src/riscv.cpp ****                 break;
 261              		.loc 1 34 17 is_stmt 1
  34:src/riscv.cpp ****                 break;
 262              		.loc 1 34 66 is_stmt 0
 263              	#APP
 264              	# 34 "src/riscv.cpp" 1
  35:src/riscv.cpp ****             }
 265              		sd a0, 80(s0)
 266              	# 0 "" 2
 267              		.loc 1 35 17 is_stmt 1
 268              	#NO_APP
 269 00e8 6FF09FFC 		j	.L7
 270              	.LVL15:
 271              	.L6:
GAS LISTING /tmp/ccdwgu9Q.s 			page 11


 272              	.LBE29:
 273              	.LBE36:
 274              	.LBE39:
 275              	.LBE43:
  37:src/riscv.cpp ****                 TCB** handle;
 276              		.loc 1 37 13
  37:src/riscv.cpp ****                 TCB** handle;
 277              		.loc 1 37 24
 278              	.LBB44:
 279              	.LBB40:
 280              	.LBB37:
 281              	.LBB30:
  38:src/riscv.cpp ****                 TCB::Body body;
 282              		.loc 1 38 17
  39:src/riscv.cpp ****                 void* arg;
 283              		.loc 1 39 17
  40:src/riscv.cpp ****                 char* stack_space;
 284              		.loc 1 40 17
  41:src/riscv.cpp ****                 __asm__ volatile("mv %0, a1" : "=r"(handle));
 285              		.loc 1 41 17
  42:src/riscv.cpp ****                 __asm__ volatile("mv %0, a2" : "=r"(body));
 286              		.loc 1 42 17
  42:src/riscv.cpp ****                 __asm__ volatile("mv %0, a2" : "=r"(body));
 287              		.loc 1 42 61 is_stmt 0
 288              	#APP
 289              	# 42 "src/riscv.cpp" 1
 290              		mv s1, a1
 291              	# 0 "" 2
 292              	.LVL16:
  43:src/riscv.cpp ****                 __asm__ volatile("mv %0, a3" : "=r"(arg));
 293              		.loc 1 43 17 is_stmt 1
  43:src/riscv.cpp ****                 __asm__ volatile("mv %0, a3" : "=r"(arg));
 294              		.loc 1 43 59 is_stmt 0
 295              	# 43 "src/riscv.cpp" 1
 296              		mv a0, a2
 297              	# 0 "" 2
 298              	.LVL17:
  44:src/riscv.cpp ****                 __asm__ volatile("mv %0, a4" : "=r"(stack_space));
 299              		.loc 1 44 17 is_stmt 1
  44:src/riscv.cpp ****                 __asm__ volatile("mv %0, a4" : "=r"(stack_space));
 300              		.loc 1 44 58 is_stmt 0
 301              	# 44 "src/riscv.cpp" 1
 302              		mv a1, a3
 303              	# 0 "" 2
 304              	.LVL18:
  45:src/riscv.cpp ****                 *handle = TCB::createThread(body, arg, stack_space);
 305              		.loc 1 45 17 is_stmt 1
  45:src/riscv.cpp ****                 *handle = TCB::createThread(body, arg, stack_space);
 306              		.loc 1 45 66 is_stmt 0
 307              	# 45 "src/riscv.cpp" 1
 308              		mv a2, a4
 309              	# 0 "" 2
 310              	.LVL19:
  46:src/riscv.cpp ****                 int retVal = (*handle != nullptr) ? 0 : -1;
 311              		.loc 1 46 17 is_stmt 1
  46:src/riscv.cpp ****                 int retVal = (*handle != nullptr) ? 0 : -1;
 312              		.loc 1 46 44 is_stmt 0
GAS LISTING /tmp/ccdwgu9Q.s 			page 12


 313              	#NO_APP
 314 00fc 97000000 		call	_ZN3TCB12createThreadEPFvvEPvPc@plt
 314      E7800000 
 315              	.LVL20:
  46:src/riscv.cpp ****                 int retVal = (*handle != nullptr) ? 0 : -1;
 316              		.loc 1 46 25
 317 0104 23B0A400 		sd	a0,0(s1)
  47:src/riscv.cpp ****                 __asm__ volatile("sd %0, 80(s0)" : : "r"(retVal));
 318              		.loc 1 47 17 is_stmt 1
  47:src/riscv.cpp ****                 __asm__ volatile("sd %0, 80(s0)" : : "r"(retVal));
 319              		.loc 1 47 51 is_stmt 0
 320 0108 63080500 		beqz	a0,.L10
 321 010c 93070000 		li	a5,0
 322              	.L8:
 323              	.LVL21:
  48:src/riscv.cpp ****                 break;
 324              		.loc 1 48 17 is_stmt 1 discriminator 4
  48:src/riscv.cpp ****                 break;
 325              		.loc 1 48 66 is_stmt 0 discriminator 4
 326              	#APP
 327              	# 48 "src/riscv.cpp" 1
  49:src/riscv.cpp ****             }
 328              		sd a5, 80(s0)
 329              	# 0 "" 2
 330              		.loc 1 49 17 is_stmt 1 discriminator 4
 331              	#NO_APP
 332 0114 6FF0DFF9 		j	.L7
 333              	.LVL22:
 334              	.L10:
  47:src/riscv.cpp ****                 __asm__ volatile("sd %0, 80(s0)" : : "r"(retVal));
 335              		.loc 1 47 51 is_stmt 0
 336 0118 9307F0FF 		li	a5,-1
 337 011c 6FF05FFF 		j	.L8
 338              	.LVL23:
 339              	.L13:
 340              	.LBE30:
 341              	.LBE37:
 342              	.LBE40:
  82:src/riscv.cpp ****     } else {
 343              		.loc 1 82 9 is_stmt 1
  82:src/riscv.cpp ****     } else {
 344              		.loc 1 82 24 is_stmt 0
 345 0120 97000000 		call	console_handler@plt
 345      E7800000 
 346              	.LVL24:
 347              	.LBE44:
 348              		.loc 1 86 1
 349 0128 6FF05FF3 		j	.L3
 350              		.cfi_endproc
 351              	.LFE33:
 353              	.Letext0:
 354              		.file 3 "src/../h/../lib/hw.h"
 355              		.file 4 "src/../h/tcb.hpp"
 356              		.file 5 "src/../lib/mem.h"
 357              		.file 6 "src/../lib/console.h"
GAS LISTING /tmp/ccdwgu9Q.s 			page 13


DEFINED SYMBOLS
                            *ABS*:0000000000000000 riscv.cpp
     /tmp/ccdwgu9Q.s:9      .text:0000000000000000 _ZN5Riscv10popSppSpieEv
     /tmp/ccdwgu9Q.s:13     .text:0000000000000000 .L0 
     /tmp/ccdwgu9Q.s:14     .text:0000000000000000 .L0 
     /tmp/ccdwgu9Q.s:15     .text:0000000000000004 .L0 
     /tmp/ccdwgu9Q.s:17     .text:0000000000000008 .L0 
     /tmp/ccdwgu9Q.s:19     .text:000000000000000c .L0 
     /tmp/ccdwgu9Q.s:21     .text:000000000000000c .L0 
       src/riscv.cpp:11     .text:000000000000000c .L0 
     /tmp/ccdwgu9Q.s:27     .text:0000000000000010 .L0 
       src/riscv.cpp:12     .text:0000000000000010 .L0 
     /tmp/ccdwgu9Q.s:33     .text:0000000000000014 .L0 
     /tmp/ccdwgu9Q.s:34     .text:0000000000000018 .L0 
     /tmp/ccdwgu9Q.s:35     .text:0000000000000018 .L0 
     /tmp/ccdwgu9Q.s:37     .text:000000000000001c .L0 
     /tmp/ccdwgu9Q.s:39     .text:0000000000000020 .L0 
     /tmp/ccdwgu9Q.s:45     .text:0000000000000020 _ZN5Riscv20handleSupervisorTrapEv
     /tmp/ccdwgu9Q.s:48     .text:0000000000000020 .L0 
     /tmp/ccdwgu9Q.s:49     .text:0000000000000020 .L0 
     /tmp/ccdwgu9Q.s:50     .text:0000000000000024 .L0 
     /tmp/ccdwgu9Q.s:54     .text:0000000000000030 .L0 
     /tmp/ccdwgu9Q.s:55     .text:0000000000000030 .L0 
     /tmp/ccdwgu9Q.s:56     .text:0000000000000030 .L0 
     /tmp/ccdwgu9Q.s:58     .text:0000000000000034 .L0 
     /tmp/ccdwgu9Q.s:63     .text:0000000000000034 .L0 
     /tmp/ccdwgu9Q.s:64     .text:0000000000000034 .L0 
     /tmp/ccdwgu9Q.s:65     .text:0000000000000034 .L0 
  src/../h/riscv.hpp:91     .text:0000000000000034 .L0 
     /tmp/ccdwgu9Q.s:73     .text:000000000000003c .L0 
     /tmp/ccdwgu9Q.s:74     .text:000000000000003c .L0 
     /tmp/ccdwgu9Q.s:80     .text:0000000000000040 .L0 
     /tmp/ccdwgu9Q.s:81     .text:0000000000000040 .L0 
     /tmp/ccdwgu9Q.s:83     .text:0000000000000044 .L0 
     /tmp/ccdwgu9Q.s:86     .text:000000000000004c .L0 
     /tmp/ccdwgu9Q.s:94     .text:000000000000005c .L0 
     /tmp/ccdwgu9Q.s:95     .text:0000000000000060 .L0 
     /tmp/ccdwgu9Q.s:96     .text:0000000000000060 .L0 
     /tmp/ccdwgu9Q.s:98     .text:0000000000000064 .L0 
     /tmp/ccdwgu9Q.s:99     .text:0000000000000064 .L0 
     /tmp/ccdwgu9Q.s:101    .text:0000000000000068 .L0 
     /tmp/ccdwgu9Q.s:103    .text:000000000000006c .L0 
     /tmp/ccdwgu9Q.s:107    .text:0000000000000070 .L0 
     /tmp/ccdwgu9Q.s:113    .text:0000000000000070 .L0 
     /tmp/ccdwgu9Q.s:114    .text:0000000000000070 .L0 
     /tmp/ccdwgu9Q.s:115    .text:0000000000000070 .L0 
  src/../h/riscv.hpp:103    .text:0000000000000070 .L0 
     /tmp/ccdwgu9Q.s:123    .text:0000000000000078 .L0 
     /tmp/ccdwgu9Q.s:124    .text:0000000000000078 .L0 
     /tmp/ccdwgu9Q.s:128    .text:000000000000007c .L0 
     /tmp/ccdwgu9Q.s:130    .text:0000000000000080 .L0 
     /tmp/ccdwgu9Q.s:134    .text:0000000000000084 .L0 
     /tmp/ccdwgu9Q.s:135    .text:0000000000000084 .L0 
     /tmp/ccdwgu9Q.s:136    .text:0000000000000084 .L0 
  src/../h/riscv.hpp:171    .text:0000000000000084 .L0 
     /tmp/ccdwgu9Q.s:144    .text:000000000000008c .L0 
     /tmp/ccdwgu9Q.s:145    .text:000000000000008c .L0 
GAS LISTING /tmp/ccdwgu9Q.s 			page 14


     /tmp/ccdwgu9Q.s:149    .text:0000000000000090 .L0 
     /tmp/ccdwgu9Q.s:151    .text:0000000000000094 .L0 
     /tmp/ccdwgu9Q.s:152    .text:0000000000000094 .L0 
       src/riscv.cpp:21     .text:0000000000000094 .L0 
     /tmp/ccdwgu9Q.s:161    .text:0000000000000098 .L0 
     /tmp/ccdwgu9Q.s:172    .text:00000000000000b0 .L0 
     /tmp/ccdwgu9Q.s:173    .text:00000000000000b0 .L0 
     /tmp/ccdwgu9Q.s:178    .text:00000000000000b4 .L0 
  src/../h/riscv.hpp:177    .text:00000000000000b4 .L0 
     /tmp/ccdwgu9Q.s:188    .text:00000000000000b8 .L0 
     /tmp/ccdwgu9Q.s:189    .text:00000000000000b8 .L0 
     /tmp/ccdwgu9Q.s:194    .text:00000000000000bc .L0 
  src/../h/riscv.hpp:109    .text:00000000000000bc .L0 
     /tmp/ccdwgu9Q.s:201    .text:00000000000000c0 .L0 
     /tmp/ccdwgu9Q.s:209    .text:00000000000000c4 .L0 
     /tmp/ccdwgu9Q.s:214    .text:00000000000000c4 .L0 
     /tmp/ccdwgu9Q.s:215    .text:00000000000000c4 .L0 
     /tmp/ccdwgu9Q.s:216    .text:00000000000000c4 .L0 
       src/riscv.cpp:25     .text:00000000000000c4 .L0 
     /tmp/ccdwgu9Q.s:223    .text:00000000000000c8 .L0 
     /tmp/ccdwgu9Q.s:225    .text:00000000000000c8 .L0 
     /tmp/ccdwgu9Q.s:228    .text:00000000000000d0 .L0 
       src/riscv.cpp:27     .text:00000000000000d0 .L0 
     /tmp/ccdwgu9Q.s:235    .text:00000000000000d4 .L0 
     /tmp/ccdwgu9Q.s:243    .text:00000000000000d8 .L0 
     /tmp/ccdwgu9Q.s:248    .text:00000000000000d8 .L0 
     /tmp/ccdwgu9Q.s:249    .text:00000000000000d8 .L0 
     /tmp/ccdwgu9Q.s:250    .text:00000000000000d8 .L0 
       src/riscv.cpp:32     .text:00000000000000d8 .L0 
     /tmp/ccdwgu9Q.s:257    .text:00000000000000dc .L0 
     /tmp/ccdwgu9Q.s:259    .text:00000000000000dc .L0 
     /tmp/ccdwgu9Q.s:262    .text:00000000000000e4 .L0 
       src/riscv.cpp:34     .text:00000000000000e4 .L0 
     /tmp/ccdwgu9Q.s:269    .text:00000000000000e8 .L0 
     /tmp/ccdwgu9Q.s:277    .text:00000000000000ec .L0 
     /tmp/ccdwgu9Q.s:282    .text:00000000000000ec .L0 
     /tmp/ccdwgu9Q.s:283    .text:00000000000000ec .L0 
     /tmp/ccdwgu9Q.s:284    .text:00000000000000ec .L0 
     /tmp/ccdwgu9Q.s:285    .text:00000000000000ec .L0 
     /tmp/ccdwgu9Q.s:286    .text:00000000000000ec .L0 
     /tmp/ccdwgu9Q.s:287    .text:00000000000000ec .L0 
       src/riscv.cpp:42     .text:00000000000000ec .L0 
     /tmp/ccdwgu9Q.s:294    .text:00000000000000f0 .L0 
       src/riscv.cpp:43     .text:00000000000000f0 .L0 
     /tmp/ccdwgu9Q.s:300    .text:00000000000000f4 .L0 
       src/riscv.cpp:44     .text:00000000000000f4 .L0 
     /tmp/ccdwgu9Q.s:306    .text:00000000000000f8 .L0 
       src/riscv.cpp:45     .text:00000000000000f8 .L0 
     /tmp/ccdwgu9Q.s:312    .text:00000000000000fc .L0 
     /tmp/ccdwgu9Q.s:314    .text:00000000000000fc .L0 
     /tmp/ccdwgu9Q.s:317    .text:0000000000000104 .L0 
     /tmp/ccdwgu9Q.s:319    .text:0000000000000108 .L0 
     /tmp/ccdwgu9Q.s:320    .text:0000000000000108 .L0 
     /tmp/ccdwgu9Q.s:325    .text:0000000000000110 .L0 
       src/riscv.cpp:48     .text:0000000000000110 .L0 
     /tmp/ccdwgu9Q.s:332    .text:0000000000000114 .L0 
     /tmp/ccdwgu9Q.s:336    .text:0000000000000118 .L0 
GAS LISTING /tmp/ccdwgu9Q.s 			page 15


     /tmp/ccdwgu9Q.s:344    .text:0000000000000120 .L0 
     /tmp/ccdwgu9Q.s:345    .text:0000000000000120 .L0 
     /tmp/ccdwgu9Q.s:349    .text:0000000000000128 .L0 
     /tmp/ccdwgu9Q.s:350    .text:000000000000012c .L0 
     /tmp/ccdwgu9Q.s:358    .text:000000000000012c .L0 
     /tmp/ccdwgu9Q.s:106    .text:0000000000000070 .L12
     /tmp/ccdwgu9Q.s:339    .text:0000000000000120 .L13
     /tmp/ccdwgu9Q.s:237    .text:00000000000000d8 .L5
     /tmp/ccdwgu9Q.s:271    .text:00000000000000ec .L6
     /tmp/ccdwgu9Q.s:203    .text:00000000000000c4 .L14
     /tmp/ccdwgu9Q.s:91     .text:000000000000005c .L3
     /tmp/ccdwgu9Q.s:169    .text:00000000000000b0 .L7
     /tmp/ccdwgu9Q.s:334    .text:0000000000000118 .L10
     /tmp/ccdwgu9Q.s:322    .text:0000000000000110 .L8
     /tmp/ccdwgu9Q.s:1183   .debug_abbrev:0000000000000000 .Ldebug_abbrev0
     /tmp/ccdwgu9Q.s:2254   .debug_str:000000000000048b .LASF87
     /tmp/ccdwgu9Q.s:2204   .debug_str:0000000000000340 .LASF88
     /tmp/ccdwgu9Q.s:2086   .debug_str:0000000000000000 .LASF89
     /tmp/ccdwgu9Q.s:5      .text:0000000000000000 .Ltext0
     /tmp/ccdwgu9Q.s:353    .text:000000000000012c .Letext0
     /tmp/ccdwgu9Q.s:2084   .debug_line:0000000000000000 .Ldebug_line0
     /tmp/ccdwgu9Q.s:2186   .debug_str:00000000000002db .LASF0
     /tmp/ccdwgu9Q.s:2200   .debug_str:000000000000031a .LASF1
     /tmp/ccdwgu9Q.s:2176   .debug_str:0000000000000294 .LASF2
     /tmp/ccdwgu9Q.s:2162   .debug_str:000000000000023c .LASF4
     /tmp/ccdwgu9Q.s:2236   .debug_str:0000000000000403 .LASF3
     /tmp/ccdwgu9Q.s:2104   .debug_str:000000000000007a .LASF5
     /tmp/ccdwgu9Q.s:2202   .debug_str:000000000000032d .LASF6
     /tmp/ccdwgu9Q.s:2184   .debug_str:00000000000002c8 .LASF7
     /tmp/ccdwgu9Q.s:2258   .debug_str:000000000000055e .LASF8
     /tmp/ccdwgu9Q.s:2150   .debug_str:00000000000001c1 .LASF9
     /tmp/ccdwgu9Q.s:2212   .debug_str:0000000000000365 .LASF10
     /tmp/ccdwgu9Q.s:2256   .debug_str:000000000000054f .LASF11
     /tmp/ccdwgu9Q.s:2106   .debug_str:0000000000000081 .LASF12
     /tmp/ccdwgu9Q.s:2090   .debug_str:0000000000000025 .LASF13
     /tmp/ccdwgu9Q.s:2116   .debug_str:00000000000000d7 .LASF14
     /tmp/ccdwgu9Q.s:2228   .debug_str:00000000000003bb .LASF15
     /tmp/ccdwgu9Q.s:2122   .debug_str:00000000000000f5 .LASF16
     /tmp/ccdwgu9Q.s:2196   .debug_str:0000000000000307 .LASF53
     /tmp/ccdwgu9Q.s:2226   .debug_str:00000000000003b0 .LASF49
     /tmp/ccdwgu9Q.s:2270   .debug_str:00000000000005c4 .LASF51
     /tmp/ccdwgu9Q.s:2092   .debug_str:0000000000000035 .LASF17
     /tmp/ccdwgu9Q.s:2242   .debug_str:000000000000042b .LASF19
     /tmp/ccdwgu9Q.s:2130   .debug_str:0000000000000144 .LASF21
     /tmp/ccdwgu9Q.s:2128   .debug_str:000000000000012f .LASF23
     /tmp/ccdwgu9Q.s:2238   .debug_str:0000000000000415 .LASF18
     /tmp/ccdwgu9Q.s:2216   .debug_str:000000000000037f .LASF20
     /tmp/ccdwgu9Q.s:2252   .debug_str:0000000000000484 .LASF22
     /tmp/ccdwgu9Q.s:2248   .debug_str:000000000000045f .LASF24
     /tmp/ccdwgu9Q.s:2144   .debug_str:000000000000019c .LASF25
     /tmp/ccdwgu9Q.s:2124   .debug_str:000000000000010b .LASF26
     /tmp/ccdwgu9Q.s:2088   .debug_str:000000000000001d .LASF27
     /tmp/ccdwgu9Q.s:2154   .debug_str:00000000000001e5 .LASF28
     /tmp/ccdwgu9Q.s:2134   .debug_str:0000000000000155 .LASF29
     /tmp/ccdwgu9Q.s:2110   .debug_str:000000000000009d .LASF30
     /tmp/ccdwgu9Q.s:2274   .debug_str:00000000000005e7 .LASF31
     /tmp/ccdwgu9Q.s:2136   .debug_str:000000000000015d .LASF32
GAS LISTING /tmp/ccdwgu9Q.s 			page 16


     /tmp/ccdwgu9Q.s:2188   .debug_str:00000000000002e8 .LASF33
     /tmp/ccdwgu9Q.s:2268   .debug_str:00000000000005b1 .LASF34
     /tmp/ccdwgu9Q.s:2102   .debug_str:0000000000000073 .LASF35
     /tmp/ccdwgu9Q.s:2142   .debug_str:0000000000000189 .LASF36
     /tmp/ccdwgu9Q.s:2146   .debug_str:00000000000001a4 .LASF37
     /tmp/ccdwgu9Q.s:2250   .debug_str:0000000000000472 .LASF38
     /tmp/ccdwgu9Q.s:2100   .debug_str:000000000000006d .LASF39
     /tmp/ccdwgu9Q.s:2280   .debug_str:0000000000000612 .LASF40
     /tmp/ccdwgu9Q.s:2272   .debug_str:00000000000005dc .LASF41
     /tmp/ccdwgu9Q.s:2234   .debug_str:00000000000003eb .LASF42
     /tmp/ccdwgu9Q.s:2168   .debug_str:0000000000000251 .LASF43
     /tmp/ccdwgu9Q.s:2244   .debug_str:0000000000000440 .LASF44
     /tmp/ccdwgu9Q.s:2114   .debug_str:00000000000000cd .LASF45
     /tmp/ccdwgu9Q.s:2158   .debug_str:00000000000001fe .LASF46
     /tmp/ccdwgu9Q.s:2180   .debug_str:00000000000002ae .LASF47
     /tmp/ccdwgu9Q.s:2152   .debug_str:00000000000001cf .LASF48
     /tmp/ccdwgu9Q.s:2240   .debug_str:000000000000041c .LASF50
     /tmp/ccdwgu9Q.s:2112   .debug_str:00000000000000b1 .LASF52
     /tmp/ccdwgu9Q.s:2262   .debug_str:0000000000000575 .LASF66
     /tmp/ccdwgu9Q.s:2172   .debug_str:0000000000000264 .LASF68
     /tmp/ccdwgu9Q.s:2096   .debug_str:0000000000000045 .LASF90
     /tmp/ccdwgu9Q.s:2156   .debug_str:00000000000001f9 .LASF54
     /tmp/ccdwgu9Q.s:2218   .debug_str:0000000000000392 .LASF56
     /tmp/ccdwgu9Q.s:2206   .debug_str:000000000000034e .LASF91
     /tmp/ccdwgu9Q.s:2148   .debug_str:00000000000001aa .LASF92
     /tmp/ccdwgu9Q.s:2178   .debug_str:00000000000002a2 .LASF55
     /tmp/ccdwgu9Q.s:2276   .debug_str:00000000000005ef .LASF57
     /tmp/ccdwgu9Q.s:2198   .debug_str:000000000000030d .LASF58
     /tmp/ccdwgu9Q.s:2098   .debug_str:000000000000004d .LASF59
     /tmp/ccdwgu9Q.s:2222   .debug_str:00000000000003a6 .LASF93
     /tmp/ccdwgu9Q.s:2230   .debug_str:00000000000003d1 .LASF60
     /tmp/ccdwgu9Q.s:2182   .debug_str:00000000000002b8 .LASF61
     /tmp/ccdwgu9Q.s:2132   .debug_str:000000000000014d .LASF94
     /tmp/ccdwgu9Q.s:2232   .debug_str:00000000000003d7 .LASF95
     /tmp/ccdwgu9Q.s:2166   .debug_str:000000000000024c .LASF62
     /tmp/ccdwgu9Q.s:2120   .debug_str:00000000000000ef .LASF63
     /tmp/ccdwgu9Q.s:2170   .debug_str:000000000000025c .LASF64
     /tmp/ccdwgu9Q.s:2164   .debug_str:0000000000000243 .LASF65
     /tmp/ccdwgu9Q.s:2174   .debug_str:0000000000000286 .LASF67
     /tmp/ccdwgu9Q.s:2266   .debug_str:0000000000000598 .LASF69
     /tmp/ccdwgu9Q.s:2264   .debug_str:000000000000058a .LASF96
     /tmp/ccdwgu9Q.s:2160   .debug_str:0000000000000214 .LASF97
     /tmp/ccdwgu9Q.s:2190   .debug_str:00000000000002ef .LASF70
     /tmp/ccdwgu9Q.s:2138   .debug_str:0000000000000171 .LASF71
     /tmp/ccdwgu9Q.s:2140   .debug_str:0000000000000184 .LASF72
     /tmp/ccdwgu9Q.s:2208   .debug_str:0000000000000359 .LASF73
     /tmp/ccdwgu9Q.s:46     .text:0000000000000020 .LFB33
     /tmp/ccdwgu9Q.s:351    .text:000000000000012c .LFE33
     /tmp/ccdwgu9Q.s:2094   .debug_str:000000000000003e .LASF74
     /tmp/ccdwgu9Q.s:1924   .debug_loc:0000000000000000 .LLST0
     /tmp/ccdwgu9Q.s:2072   .debug_ranges:0000000000000000 .Ldebug_ranges0
     /tmp/ccdwgu9Q.s:2194   .debug_str:0000000000000302 .LASF75
     /tmp/ccdwgu9Q.s:2220   .debug_str:000000000000039e .LASF76
     /tmp/ccdwgu9Q.s:2118   .debug_str:00000000000000e3 .LASF77
     /tmp/ccdwgu9Q.s:1963   .debug_loc:000000000000009d .LLST1
     /tmp/ccdwgu9Q.s:213    .text:00000000000000c4 .LBB28
     /tmp/ccdwgu9Q.s:238    .text:00000000000000d8 .LBE28
GAS LISTING /tmp/ccdwgu9Q.s 			page 17


     /tmp/ccdwgu9Q.s:2224   .debug_str:00000000000003ab .LASF78
     /tmp/ccdwgu9Q.s:1982   .debug_loc:00000000000000f9 .LLST2
     /tmp/ccdwgu9Q.s:2192   .debug_str:00000000000002f8 .LASF79
     /tmp/ccdwgu9Q.s:1989   .debug_loc:000000000000011c .LLST3
     /tmp/ccdwgu9Q.s:226    .text:00000000000000d0 .LVL11
     /tmp/ccdwgu9Q.s:247    .text:00000000000000d8 .LBB29
     /tmp/ccdwgu9Q.s:272    .text:00000000000000ec .LBE29
     /tmp/ccdwgu9Q.s:2210   .debug_str:000000000000035e .LASF80
     /tmp/ccdwgu9Q.s:1996   .debug_loc:000000000000013f .LLST4
     /tmp/ccdwgu9Q.s:2260   .debug_str:000000000000056e .LASF81
     /tmp/ccdwgu9Q.s:2003   .debug_loc:0000000000000162 .LLST5
     /tmp/ccdwgu9Q.s:260    .text:00000000000000e4 .LVL14
     /tmp/ccdwgu9Q.s:281    .text:00000000000000ec .LBB30
     /tmp/ccdwgu9Q.s:340    .text:0000000000000120 .LBE30
     /tmp/ccdwgu9Q.s:2246   .debug_str:0000000000000458 .LASF82
     /tmp/ccdwgu9Q.s:2010   .debug_loc:0000000000000185 .LLST6
     /tmp/ccdwgu9Q.s:2017   .debug_loc:00000000000001a8 .LLST7
     /tmp/ccdwgu9Q.s:2024   .debug_loc:00000000000001cb .LLST8
     /tmp/ccdwgu9Q.s:2278   .debug_str:0000000000000606 .LASF83
     /tmp/ccdwgu9Q.s:2031   .debug_loc:00000000000001ee .LLST9
     /tmp/ccdwgu9Q.s:2038   .debug_loc:0000000000000211 .LLST10
     /tmp/ccdwgu9Q.s:315    .text:0000000000000104 .LVL20
     /tmp/ccdwgu9Q.s:111    .text:0000000000000070 .LBB23
     /tmp/ccdwgu9Q.s:126    .text:000000000000007c .LBE23
     /tmp/ccdwgu9Q.s:132    .text:0000000000000084 .LBB25
     /tmp/ccdwgu9Q.s:147    .text:0000000000000090 .LBE25
     /tmp/ccdwgu9Q.s:175    .text:00000000000000b4 .LBB31
     /tmp/ccdwgu9Q.s:186    .text:00000000000000b8 .LBE31
     /tmp/ccdwgu9Q.s:2045   .debug_loc:0000000000000234 .LLST11
     /tmp/ccdwgu9Q.s:191    .text:00000000000000bc .LBB33
     /tmp/ccdwgu9Q.s:205    .text:00000000000000c4 .LBE33
     /tmp/ccdwgu9Q.s:2052   .debug_loc:0000000000000257 .LLST12
     /tmp/ccdwgu9Q.s:60     .text:0000000000000034 .LBB19
     /tmp/ccdwgu9Q.s:77     .text:0000000000000040 .LBE19
     /tmp/ccdwgu9Q.s:346    .text:0000000000000128 .LVL24
     /tmp/ccdwgu9Q.s:10     .text:0000000000000000 .LFB32
     /tmp/ccdwgu9Q.s:40     .text:0000000000000020 .LFE32
     /tmp/ccdwgu9Q.s:2108   .debug_str:0000000000000091 .LASF84
     /tmp/ccdwgu9Q.s:2214   .debug_str:0000000000000374 .LASF85
     /tmp/ccdwgu9Q.s:2126   .debug_str:000000000000011f .LASF86
     /tmp/ccdwgu9Q.s:75     .text:0000000000000040 .LVL0
     /tmp/ccdwgu9Q.s:90     .text:000000000000005c .LVL1
     /tmp/ccdwgu9Q.s:105    .text:0000000000000070 .LVL2
     /tmp/ccdwgu9Q.s:162    .text:000000000000009c .LVL4
     /tmp/ccdwgu9Q.s:168    .text:00000000000000b0 .LVL5
     /tmp/ccdwgu9Q.s:202    .text:00000000000000c4 .LVL9
     /tmp/ccdwgu9Q.s:236    .text:00000000000000d8 .LVL12
     /tmp/ccdwgu9Q.s:270    .text:00000000000000ec .LVL15
     /tmp/ccdwgu9Q.s:338    .text:0000000000000120 .LVL23
     /tmp/ccdwgu9Q.s:157    .text:0000000000000098 .LVL3
     /tmp/ccdwgu9Q.s:221    .text:00000000000000c8 .LVL10
     /tmp/ccdwgu9Q.s:255    .text:00000000000000dc .LVL13
     /tmp/ccdwgu9Q.s:292    .text:00000000000000f0 .LVL16
     /tmp/ccdwgu9Q.s:298    .text:00000000000000f4 .LVL17
     /tmp/ccdwgu9Q.s:304    .text:00000000000000f8 .LVL18
     /tmp/ccdwgu9Q.s:310    .text:00000000000000fc .LVL19
     /tmp/ccdwgu9Q.s:323    .text:0000000000000110 .LVL21
GAS LISTING /tmp/ccdwgu9Q.s 			page 18


     /tmp/ccdwgu9Q.s:333    .text:0000000000000118 .LVL22
     /tmp/ccdwgu9Q.s:174    .text:00000000000000b4 .LVL6
     /tmp/ccdwgu9Q.s:183    .text:00000000000000b8 .LVL7
     /tmp/ccdwgu9Q.s:190    .text:00000000000000bc .LVL8
     /tmp/ccdwgu9Q.s:359    .debug_info:0000000000000000 .Ldebug_info0
     /tmp/ccdwgu9Q.s:109    .text:0000000000000070 .LBB22
     /tmp/ccdwgu9Q.s:206    .text:00000000000000c4 .LBE22
     /tmp/ccdwgu9Q.s:211    .text:00000000000000c4 .LBB38
     /tmp/ccdwgu9Q.s:240    .text:00000000000000d8 .LBE38
     /tmp/ccdwgu9Q.s:245    .text:00000000000000d8 .LBB39
     /tmp/ccdwgu9Q.s:274    .text:00000000000000ec .LBE39
     /tmp/ccdwgu9Q.s:279    .text:00000000000000ec .LBB40
     /tmp/ccdwgu9Q.s:342    .text:0000000000000120 .LBE40

UNDEFINED SYMBOLS
__mem_alloc
__mem_free
_ZN3TCB12createThreadEPFvvEPvPc
console_handler
