GAS LISTING /tmp/ccSTHk43.s 			page 1


   1              		.file	"riscv.cpp"
   2              		.option pic
   3              		.option norelax
   4              		.text
   5              	.Ltext0:
   6              		.align	2
   7              		.globl	_ZN5Riscv10popSppSpieEv
   9              	_ZN5Riscv10popSppSpieEv:
  10              	.LFB16:
  11              		.file 1 "src/riscv.cpp"
   1:src/riscv.cpp **** //
   2:src/riscv.cpp **** // Created by os on 7/19/25.
   3:src/riscv.cpp **** //
   4:src/riscv.cpp **** 
   5:src/riscv.cpp **** #include "../h/riscv.hpp"
   6:src/riscv.cpp **** #include "../lib/console.h"
   7:src/riscv.cpp **** #include "../h/tcb.hpp"
   8:src/riscv.cpp **** #include "../lib/mem.h"   //dok ne uvezem svoj MemmoryAllocator
   9:src/riscv.cpp **** 
  10:src/riscv.cpp **** void Riscv::popSppSpie() {
  12              		.loc 1 10 26
  13              		.cfi_startproc
  14 0000 130101FF 		addi	sp,sp,-16
  15              		.cfi_def_cfa_offset 16
  16 0004 23348100 		sd	s0,8(sp)
  17              		.cfi_offset 8, -8
  18 0008 13040101 		addi	s0,sp,16
  19              		.cfi_def_cfa 8, 0
  11:src/riscv.cpp ****     __asm__ volatile("csrw sepc, ra");
  20              		.loc 1 11 5
  21              		.loc 1 11 38 is_stmt 0
  22              	#APP
  23              	# 11 "src/riscv.cpp" 1
  12              	    __asm__ volatile("sret");
  24              		csrw sepc, ra
  25              	# 0 "" 2
  26              		.loc 1 12 5 is_stmt 1
  27              		.loc 1 12 29 is_stmt 0
  28              	# 12 "src/riscv.cpp" 1
  13              	}
  29              		sret
  30              	# 0 "" 2
  31              		.loc 1 13 1
  32              	#NO_APP
  33 0014 03348100 		ld	s0,8(sp)
  34              		.cfi_restore 8
  35              		.cfi_def_cfa 2, 16
  36 0018 13010101 		addi	sp,sp,16
  37              		.cfi_def_cfa_offset 0
  38 001c 67800000 		jr	ra
  39              		.cfi_endproc
  40              	.LFE16:
  42              		.align	2
  43              		.globl	_ZN5Riscv20handleSupervisorTrapEv
  45              	_ZN5Riscv20handleSupervisorTrapEv:
  46              	.LFB17:
  14:src/riscv.cpp **** 
GAS LISTING /tmp/ccSTHk43.s 			page 2


  15:src/riscv.cpp **** void Riscv::handleSupervisorTrap() {
  47              		.loc 1 15 36 is_stmt 1
  48              		.cfi_startproc
  49 0020 130101FC 		addi	sp,sp,-64
  50              		.cfi_def_cfa_offset 64
  51 0024 233C1102 		sd	ra,56(sp)
  52 0028 23388102 		sd	s0,48(sp)
  53              		.cfi_offset 1, -8
  54              		.cfi_offset 8, -16
  55 002c 13040104 		addi	s0,sp,64
  56              		.cfi_def_cfa 8, 0
  16:src/riscv.cpp ****     uint64 scause = r_scause();
  57              		.loc 1 16 5
  58              	.LBB18:
  59              	.LBB19:
  60              		.file 2 "src/../h/riscv.hpp"
   1:src/../h/riscv.hpp **** //
   2:src/../h/riscv.hpp **** // Created by os on 7/19/25.
   3:src/../h/riscv.hpp **** //
   4:src/../h/riscv.hpp **** 
   5:src/../h/riscv.hpp **** #ifndef OSPROJECT_RISCV_HPP
   6:src/../h/riscv.hpp **** #define OSPROJECT_RISCV_HPP
   7:src/../h/riscv.hpp **** 
   8:src/../h/riscv.hpp **** #include "../lib/hw.h"
   9:src/../h/riscv.hpp **** 
  10:src/../h/riscv.hpp **** class Riscv {
  11:src/../h/riscv.hpp **** public:
  12:src/../h/riscv.hpp ****     // pop sstatus.spp and sstatus.spie bits (has to be a non inline function)
  13:src/../h/riscv.hpp ****     static void popSppSpie();
  14:src/../h/riscv.hpp **** 
  15:src/../h/riscv.hpp ****     // read register scause
  16:src/../h/riscv.hpp ****     static uint64 r_scause();
  17:src/../h/riscv.hpp **** 
  18:src/../h/riscv.hpp ****     // write register scause
  19:src/../h/riscv.hpp ****     static void w_scause(uint64 scause);
  20:src/../h/riscv.hpp **** 
  21:src/../h/riscv.hpp ****     // read register sepc
  22:src/../h/riscv.hpp ****     static uint64 r_sepc();
  23:src/../h/riscv.hpp **** 
  24:src/../h/riscv.hpp ****     // write register sepc
  25:src/../h/riscv.hpp ****     static void w_sepc(uint64 sepc);
  26:src/../h/riscv.hpp **** 
  27:src/../h/riscv.hpp ****     // read register stvec
  28:src/../h/riscv.hpp ****     static uint64 r_stvec();
  29:src/../h/riscv.hpp **** 
  30:src/../h/riscv.hpp ****     // write register stvec
  31:src/../h/riscv.hpp ****     static void w_stvec(uint64 stvec);
  32:src/../h/riscv.hpp **** 
  33:src/../h/riscv.hpp ****     // read register stval
  34:src/../h/riscv.hpp ****     static uint64 r_stval();
  35:src/../h/riscv.hpp **** 
  36:src/../h/riscv.hpp ****     // write register stval
  37:src/../h/riscv.hpp ****     static void w_stval(uint64 stval);
  38:src/../h/riscv.hpp **** 
  39:src/../h/riscv.hpp ****     enum BitMaskSip
  40:src/../h/riscv.hpp ****     {
  41:src/../h/riscv.hpp ****         SIP_SSIE = (1 << 1),
GAS LISTING /tmp/ccSTHk43.s 			page 3


  42:src/../h/riscv.hpp ****         SIP_STIE = (1 << 5),
  43:src/../h/riscv.hpp ****         SIP_SEIE = (1 << 9),
  44:src/../h/riscv.hpp ****     };
  45:src/../h/riscv.hpp **** 
  46:src/../h/riscv.hpp ****     // mask set register sip
  47:src/../h/riscv.hpp ****     static void ms_sip(uint64 mask);
  48:src/../h/riscv.hpp **** 
  49:src/../h/riscv.hpp ****     // mask clear register sip
  50:src/../h/riscv.hpp ****     static void mc_sip(uint64 mask);
  51:src/../h/riscv.hpp **** 
  52:src/../h/riscv.hpp ****     // read register sip
  53:src/../h/riscv.hpp ****     static uint64 r_sip();
  54:src/../h/riscv.hpp **** 
  55:src/../h/riscv.hpp ****     // write register sip
  56:src/../h/riscv.hpp ****     static void w_sip(uint64 sip);
  57:src/../h/riscv.hpp **** 
  58:src/../h/riscv.hpp ****     enum BitMaskSstatus
  59:src/../h/riscv.hpp ****     {
  60:src/../h/riscv.hpp ****         SSTATUS_SIE = (1 << 1),
  61:src/../h/riscv.hpp ****         SSTATUS_SPIE = (1 << 5),
  62:src/../h/riscv.hpp ****         SSTATUS_SPP = (1 << 8),
  63:src/../h/riscv.hpp ****     };
  64:src/../h/riscv.hpp **** 
  65:src/../h/riscv.hpp ****     // mask set register sstatus
  66:src/../h/riscv.hpp ****     static void ms_sstatus(uint64 mask);
  67:src/../h/riscv.hpp **** 
  68:src/../h/riscv.hpp ****     // mask clear register sstatus
  69:src/../h/riscv.hpp ****     static void mc_sstatus(uint64 mask);
  70:src/../h/riscv.hpp **** 
  71:src/../h/riscv.hpp ****     // read register sstatus
  72:src/../h/riscv.hpp ****     static uint64 r_sstatus();
  73:src/../h/riscv.hpp **** 
  74:src/../h/riscv.hpp ****     // write register sstatus
  75:src/../h/riscv.hpp ****     static void w_sstatus(uint64 sstatus);
  76:src/../h/riscv.hpp **** 
  77:src/../h/riscv.hpp ****     // supervisor trap
  78:src/../h/riscv.hpp ****     static void supervisorTrap();
  79:src/../h/riscv.hpp **** 
  80:src/../h/riscv.hpp **** private:
  81:src/../h/riscv.hpp **** 
  82:src/../h/riscv.hpp ****     // supervisor trap handler
  83:src/../h/riscv.hpp ****     static void handleSupervisorTrap();
  84:src/../h/riscv.hpp **** 
  85:src/../h/riscv.hpp **** };
  86:src/../h/riscv.hpp **** 
  87:src/../h/riscv.hpp **** 
  88:src/../h/riscv.hpp **** inline uint64 Riscv::r_scause()
  89:src/../h/riscv.hpp **** {
  90:src/../h/riscv.hpp ****     uint64 volatile scause;
  61              		.loc 2 90 5
  91:src/../h/riscv.hpp ****     __asm__ volatile ("csrr %[scause], scause" : [scause] "=r"(scause));
  62              		.loc 2 91 5
  63              		.loc 2 91 72 is_stmt 0
  64              	#APP
  65              	# 91 "src/../h/riscv.hpp" 1
  92              	    return scause;
  66              		csrr a5, scause
GAS LISTING /tmp/ccSTHk43.s 			page 4


  67              	# 0 "" 2
  68              	#NO_APP
  69 0034 233CF4FC 		sd	a5,-40(s0)
  70              		.loc 2 92 5 is_stmt 1
  71              		.loc 2 92 12 is_stmt 0
  72 0038 033784FD 		ld	a4,-40(s0)
  73              	.LVL0:
  74              	.LBE19:
  75              	.LBE18:
  17:src/riscv.cpp ****     if(scause == 0x0000000000000008UL || scause == 0x0000000000000009UL) {
  76              		.loc 1 17 5 is_stmt 1
  77              	.LBB20:
  78              		.loc 1 17 39 is_stmt 0
  79 003c 930687FF 		addi	a3,a4,-8
  80              		.loc 1 17 5
  81 0040 93071000 		li	a5,1
  82 0044 63F2D702 		bleu	a3,a5,.L10
  18:src/riscv.cpp ****         uint64 volatile sepc = r_sepc() + 4;
  19:src/riscv.cpp ****         uint64 volatile sstatus = r_sstatus();
  20:src/riscv.cpp ****         uint64 sysCallCode;
  21:src/riscv.cpp ****         __asm__ volatile("mv %0, a0" : "=r"(sysCallCode));
  22:src/riscv.cpp ****         switch (sysCallCode) {
  23:src/riscv.cpp ****             case 0x01: { //mem_alloc
  24:src/riscv.cpp ****                 size_t size;
  25:src/riscv.cpp ****                 __asm__ volatile("mv %0, a1" : "=r"(size));
  26:src/riscv.cpp ****                 void* returnAdr = __mem_alloc(size);
  27:src/riscv.cpp ****                 __asm__ volatile("sd %0, 10 * 8(fp)" : : "r"(returnAdr));
  28:src/riscv.cpp ****                 break;
  29:src/riscv.cpp ****             }
  30:src/riscv.cpp ****             case 0x02: { //mem_free
  31:src/riscv.cpp ****                 void* adrPtr;
  32:src/riscv.cpp ****                 __asm__ volatile("mv %0, a1" : "=r"(adrPtr));
  33:src/riscv.cpp ****                 int retVal = __mem_free(adrPtr);
  34:src/riscv.cpp ****                 __asm__ volatile("mv a0, %0" : : "r"(retVal));
  35:src/riscv.cpp ****                 break;
  36:src/riscv.cpp ****             }
  37:src/riscv.cpp ****             case 0x11: { //thread_create
  38:src/riscv.cpp ****                 //thread* handle;
  39:src/riscv.cpp ****                 break;
  40:src/riscv.cpp ****             }
  41:src/riscv.cpp ****             case 0x12: { //thread_exit
  42:src/riscv.cpp ****                 break;
  43:src/riscv.cpp ****             }
  44:src/riscv.cpp ****             case 0x13: { //thread_dispatch
  45:src/riscv.cpp ****                 break;
  46:src/riscv.cpp ****             }
  47:src/riscv.cpp ****             case 0x21: { //sem_open
  48:src/riscv.cpp ****                 break;
  49:src/riscv.cpp ****             }
  50:src/riscv.cpp ****             case 0x22: { //sem_close
  51:src/riscv.cpp ****                 break;
  52:src/riscv.cpp ****             }
  53:src/riscv.cpp ****             case 0x23: { //sem_wait
  54:src/riscv.cpp ****                 break;
  55:src/riscv.cpp ****             }
  56:src/riscv.cpp ****             case 0x24: { //sem_signal
  57:src/riscv.cpp ****                 break;
GAS LISTING /tmp/ccSTHk43.s 			page 5


  58:src/riscv.cpp ****             }
  59:src/riscv.cpp ****             case 0x26: { //sem_trywait
  60:src/riscv.cpp ****                 break;
  61:src/riscv.cpp ****             }
  62:src/riscv.cpp ****             case 0x41: { //getc
  63:src/riscv.cpp ****                 break;
  64:src/riscv.cpp ****             }
  65:src/riscv.cpp ****             case 0x42: { //putc
  66:src/riscv.cpp ****                 break;
  67:src/riscv.cpp ****             }
  68:src/riscv.cpp ****         }
  69:src/riscv.cpp ****         w_sstatus(sstatus);
  70:src/riscv.cpp ****         w_sepc(sepc);
  71:src/riscv.cpp ****     } else if(scause == 0x8000000000000009UL) {
  83              		.loc 1 71 12 is_stmt 1
  84 0048 9307F0FF 		li	a5,-1
  85 004c 9397F703 		slli	a5,a5,63
  86 0050 93879700 		addi	a5,a5,9
  87 0054 6304F708 		beq	a4,a5,.L11
  88              	.LVL1:
  89              	.L3:
  90              	.LBE20:
  72:src/riscv.cpp ****         console_handler();
  73:src/riscv.cpp ****     } else {
  74:src/riscv.cpp ****         //error
  75:src/riscv.cpp ****     }
  76:src/riscv.cpp **** }
  91              		.loc 1 76 1 is_stmt 0
  92 0058 83308103 		ld	ra,56(sp)
  93              		.cfi_remember_state
  94              		.cfi_restore 1
  95 005c 03340103 		ld	s0,48(sp)
  96              		.cfi_restore 8
  97              		.cfi_def_cfa 2, 64
  98 0060 13010104 		addi	sp,sp,64
  99              		.cfi_def_cfa_offset 0
 100 0064 67800000 		jr	ra
 101              	.LVL2:
 102              	.L10:
 103              		.cfi_restore_state
 104              	.LBB37:
 105              	.LBB21:
  18:src/riscv.cpp ****         uint64 volatile sepc = r_sepc() + 4;
 106              		.loc 1 18 9 is_stmt 1
 107              	.LBB22:
 108              	.LBB23:
  93:src/../h/riscv.hpp **** }
  94:src/../h/riscv.hpp **** 
  95:src/../h/riscv.hpp **** inline void Riscv::w_scause(uint64 scause)
  96:src/../h/riscv.hpp **** {
  97:src/../h/riscv.hpp ****     __asm__ volatile ("csrw scause, %[scause]" : : [scause] "r"(scause));
  98:src/../h/riscv.hpp **** }
  99:src/../h/riscv.hpp **** 
 100:src/../h/riscv.hpp **** inline uint64 Riscv::r_sepc()
 101:src/../h/riscv.hpp **** {
 102:src/../h/riscv.hpp ****     uint64 volatile sepc;
 109              		.loc 2 102 5
GAS LISTING /tmp/ccSTHk43.s 			page 6


 103:src/../h/riscv.hpp ****     __asm__ volatile ("csrr %[sepc], sepc" : [sepc] "=r"(sepc));
 110              		.loc 2 103 5
 111              		.loc 2 103 64 is_stmt 0
 112              	#APP
 113              	# 103 "src/../h/riscv.hpp" 1
 104              	    return sepc;
 114              		csrr a5, sepc
 115              	# 0 "" 2
 116              	#NO_APP
 117 006c 2334F4FE 		sd	a5,-24(s0)
 118              		.loc 2 104 5 is_stmt 1
 119              		.loc 2 104 12 is_stmt 0
 120 0070 833784FE 		ld	a5,-24(s0)
 121              	.LBE23:
 122              	.LBE22:
  18:src/riscv.cpp ****         uint64 volatile sstatus = r_sstatus();
 123              		.loc 1 18 41
 124 0074 93874700 		addi	a5,a5,4
  18:src/riscv.cpp ****         uint64 volatile sstatus = r_sstatus();
 125              		.loc 1 18 43
 126 0078 2334F4FC 		sd	a5,-56(s0)
  19:src/riscv.cpp ****         uint64 sysCallCode;
 127              		.loc 1 19 9 is_stmt 1
 128              	.LBB24:
 129              	.LBB25:
 105:src/../h/riscv.hpp **** }
 106:src/../h/riscv.hpp **** 
 107:src/../h/riscv.hpp **** inline void Riscv::w_sepc(uint64 sepc)
 108:src/../h/riscv.hpp **** {
 109:src/../h/riscv.hpp ****     __asm__ volatile ("csrw sepc, %[sepc]" : : [sepc] "r"(sepc));
 110:src/../h/riscv.hpp **** }
 111:src/../h/riscv.hpp **** 
 112:src/../h/riscv.hpp **** inline uint64 Riscv::r_stvec()
 113:src/../h/riscv.hpp **** {
 114:src/../h/riscv.hpp ****     uint64 volatile stvec;
 115:src/../h/riscv.hpp ****     __asm__ volatile ("csrr %[stvec], stvec" : [stvec] "=r"(stvec));
 116:src/../h/riscv.hpp ****     return stvec;
 117:src/../h/riscv.hpp **** }
 118:src/../h/riscv.hpp **** 
 119:src/../h/riscv.hpp **** inline void Riscv::w_stvec(uint64 stvec)
 120:src/../h/riscv.hpp **** {
 121:src/../h/riscv.hpp ****     __asm__ volatile ("csrw stvec, %[stvec]" : : [stvec] "r"(stvec));
 122:src/../h/riscv.hpp **** }
 123:src/../h/riscv.hpp **** 
 124:src/../h/riscv.hpp **** inline uint64 Riscv::r_stval()
 125:src/../h/riscv.hpp **** {
 126:src/../h/riscv.hpp ****     uint64 volatile stval;
 127:src/../h/riscv.hpp ****     __asm__ volatile ("csrr %[stval], stval" : [stval] "=r"(stval));
 128:src/../h/riscv.hpp ****     return stval;
 129:src/../h/riscv.hpp **** }
 130:src/../h/riscv.hpp **** 
 131:src/../h/riscv.hpp **** inline void Riscv::w_stval(uint64 stval)
 132:src/../h/riscv.hpp **** {
 133:src/../h/riscv.hpp ****     __asm__ volatile ("csrw stval, %[stval]" : : [stval] "r"(stval));
 134:src/../h/riscv.hpp **** }
 135:src/../h/riscv.hpp **** 
 136:src/../h/riscv.hpp **** inline void Riscv::ms_sip(uint64 mask)
GAS LISTING /tmp/ccSTHk43.s 			page 7


 137:src/../h/riscv.hpp **** {
 138:src/../h/riscv.hpp ****     __asm__ volatile ("csrs sip, %[mask]" : : [mask] "r"(mask));
 139:src/../h/riscv.hpp **** }
 140:src/../h/riscv.hpp **** 
 141:src/../h/riscv.hpp **** inline void Riscv::mc_sip(uint64 mask)
 142:src/../h/riscv.hpp **** {
 143:src/../h/riscv.hpp ****     __asm__ volatile ("csrc sip, %[mask]" : : [mask] "r"(mask));
 144:src/../h/riscv.hpp **** }
 145:src/../h/riscv.hpp **** 
 146:src/../h/riscv.hpp **** inline uint64 Riscv::r_sip()
 147:src/../h/riscv.hpp **** {
 148:src/../h/riscv.hpp ****     uint64 volatile sip;
 149:src/../h/riscv.hpp ****     __asm__ volatile ("csrr %[sip], sip" : [sip] "=r"(sip));
 150:src/../h/riscv.hpp ****     return sip;
 151:src/../h/riscv.hpp **** }
 152:src/../h/riscv.hpp **** 
 153:src/../h/riscv.hpp **** inline void Riscv::w_sip(uint64 sip)
 154:src/../h/riscv.hpp **** {
 155:src/../h/riscv.hpp ****     __asm__ volatile ("csrw sip, %[sip]" : : [sip] "r"(sip));
 156:src/../h/riscv.hpp **** }
 157:src/../h/riscv.hpp **** 
 158:src/../h/riscv.hpp **** inline void Riscv::ms_sstatus(uint64 mask)
 159:src/../h/riscv.hpp **** {
 160:src/../h/riscv.hpp ****     __asm__ volatile ("csrs sstatus, %[mask]" : : [mask] "r"(mask));
 161:src/../h/riscv.hpp **** }
 162:src/../h/riscv.hpp **** 
 163:src/../h/riscv.hpp **** inline void Riscv::mc_sstatus(uint64 mask)
 164:src/../h/riscv.hpp **** {
 165:src/../h/riscv.hpp ****     __asm__ volatile ("csrc sstatus, %[mask]" : : [mask] "r"(mask));
 166:src/../h/riscv.hpp **** }
 167:src/../h/riscv.hpp **** 
 168:src/../h/riscv.hpp **** inline uint64 Riscv::r_sstatus()
 169:src/../h/riscv.hpp **** {
 170:src/../h/riscv.hpp ****     uint64 volatile sstatus;
 130              		.loc 2 170 5
 171:src/../h/riscv.hpp ****     __asm__ volatile ("csrr %[sstatus], sstatus" : [sstatus] "=r"(sstatus));
 131              		.loc 2 171 5
 132              		.loc 2 171 76 is_stmt 0
 133              	#APP
 134              	# 171 "src/../h/riscv.hpp" 1
 172              	    return sstatus;
 135              		csrr a5, sstatus
 136              	# 0 "" 2
 137              	#NO_APP
 138 0080 2330F4FE 		sd	a5,-32(s0)
 139              		.loc 2 172 5 is_stmt 1
 140              		.loc 2 172 12 is_stmt 0
 141 0084 833704FE 		ld	a5,-32(s0)
 142              	.LBE25:
 143              	.LBE24:
  19:src/riscv.cpp ****         uint64 sysCallCode;
 144              		.loc 1 19 45
 145 0088 2338F4FC 		sd	a5,-48(s0)
  20:src/riscv.cpp ****         __asm__ volatile("mv %0, a0" : "=r"(sysCallCode));
 146              		.loc 1 20 9 is_stmt 1
  21:src/riscv.cpp ****         switch (sysCallCode) {
 147              		.loc 1 21 9
GAS LISTING /tmp/ccSTHk43.s 			page 8


  21:src/riscv.cpp ****         switch (sysCallCode) {
 148              		.loc 1 21 58 is_stmt 0
 149              	#APP
 150              	# 21 "src/riscv.cpp" 1
 151              		mv a5, a0
 152              	# 0 "" 2
 153              	.LVL3:
  22:src/riscv.cpp ****             case 0x01: { //mem_alloc
 154              		.loc 1 22 9 is_stmt 1
 155              	#NO_APP
 156              	.LBB26:
 157 0090 13071000 		li	a4,1
 158              	.LVL4:
 159 0094 6380E702 		beq	a5,a4,.L5
 160 0098 13072000 		li	a4,2
 161 009c 6386E702 		beq	a5,a4,.L6
 162              	.LVL5:
 163              	.L7:
 164              	.LBE26:
  69:src/riscv.cpp ****         w_sepc(sepc);
 165              		.loc 1 69 9
  69:src/riscv.cpp ****         w_sepc(sepc);
 166              		.loc 1 69 18 is_stmt 0
 167 00a0 833704FD 		ld	a5,-48(s0)
 168              	.LVL6:
 169              	.LBB29:
 170              	.LBB30:
 173:src/../h/riscv.hpp **** }
 174:src/../h/riscv.hpp **** 
 175:src/../h/riscv.hpp **** inline void Riscv::w_sstatus(uint64 sstatus)
 176:src/../h/riscv.hpp **** {
 177:src/../h/riscv.hpp ****     __asm__ volatile ("csrw sstatus, %[sstatus]" : : [sstatus] "r"(sstatus));
 171              		.loc 2 177 5 is_stmt 1
 172              		.loc 2 177 77 is_stmt 0
 173              	#APP
 174              	# 177 "src/../h/riscv.hpp" 1
 178              	}
 175              		csrw sstatus, a5
 176              	# 0 "" 2
 177              	.LVL7:
 178              	#NO_APP
 179              	.LBE30:
 180              	.LBE29:
  70:src/riscv.cpp ****     } else if(scause == 0x8000000000000009UL) {
 181              		.loc 1 70 9 is_stmt 1
  70:src/riscv.cpp ****     } else if(scause == 0x8000000000000009UL) {
 182              		.loc 1 70 15 is_stmt 0
 183 00a8 833784FC 		ld	a5,-56(s0)
 184              	.LVL8:
 185              	.LBB31:
 186              	.LBB32:
 109:src/../h/riscv.hpp **** }
 187              		.loc 2 109 5 is_stmt 1
 109:src/../h/riscv.hpp **** }
 188              		.loc 2 109 65 is_stmt 0
 189              	#APP
 190              	# 109 "src/../h/riscv.hpp" 1
GAS LISTING /tmp/ccSTHk43.s 			page 9


 110:src/../h/riscv.hpp **** 
 191              		csrw sepc, a5
 192              	# 0 "" 2
 193              		.loc 2 110 1
 194              	#NO_APP
 195 00b0 6FF09FFA 		j	.L3
 196              	.LVL9:
 197              	.L5:
 198              	.LBE32:
 199              	.LBE31:
 200              	.LBE21:
 201              	.LBE37:
  23:src/riscv.cpp ****                 size_t size;
 202              		.loc 1 23 13 is_stmt 1
  23:src/riscv.cpp ****                 size_t size;
 203              		.loc 1 23 24
 204              	.LBB38:
 205              	.LBB35:
 206              	.LBB33:
 207              	.LBB27:
  24:src/riscv.cpp ****                 __asm__ volatile("mv %0, a1" : "=r"(size));
 208              		.loc 1 24 17
  25:src/riscv.cpp ****                 void* returnAdr = __mem_alloc(size);
 209              		.loc 1 25 17
  25:src/riscv.cpp ****                 void* returnAdr = __mem_alloc(size);
 210              		.loc 1 25 59 is_stmt 0
 211              	#APP
 212              	# 25 "src/riscv.cpp" 1
 213              		mv a0, a1
 214              	# 0 "" 2
 215              	.LVL10:
  26:src/riscv.cpp ****                 __asm__ volatile("sd %0, 10 * 8(fp)" : : "r"(returnAdr));
 216              		.loc 1 26 17 is_stmt 1
  26:src/riscv.cpp ****                 __asm__ volatile("sd %0, 10 * 8(fp)" : : "r"(returnAdr));
 217              		.loc 1 26 46 is_stmt 0
 218              	#NO_APP
 219 00b8 97000000 		call	__mem_alloc@plt
 219      E7800000 
 220              	.LVL11:
  27:src/riscv.cpp ****                 break;
 221              		.loc 1 27 17 is_stmt 1
  27:src/riscv.cpp ****                 break;
 222              		.loc 1 27 73 is_stmt 0
 223              	#APP
 224              	# 27 "src/riscv.cpp" 1
  28:src/riscv.cpp ****             }
 225              		sd a0, 10 * 8(fp)
 226              	# 0 "" 2
 227              		.loc 1 28 17 is_stmt 1
 228              	#NO_APP
 229 00c4 6FF0DFFD 		j	.L7
 230              	.LVL12:
 231              	.L6:
 232              	.LBE27:
 233              	.LBE33:
 234              	.LBE35:
 235              	.LBE38:
GAS LISTING /tmp/ccSTHk43.s 			page 10


  30:src/riscv.cpp ****                 void* adrPtr;
 236              		.loc 1 30 13
  30:src/riscv.cpp ****                 void* adrPtr;
 237              		.loc 1 30 24
 238              	.LBB39:
 239              	.LBB36:
 240              	.LBB34:
 241              	.LBB28:
  31:src/riscv.cpp ****                 __asm__ volatile("mv %0, a1" : "=r"(adrPtr));
 242              		.loc 1 31 17
  32:src/riscv.cpp ****                 int retVal = __mem_free(adrPtr);
 243              		.loc 1 32 17
  32:src/riscv.cpp ****                 int retVal = __mem_free(adrPtr);
 244              		.loc 1 32 61 is_stmt 0
 245              	#APP
 246              	# 32 "src/riscv.cpp" 1
 247              		mv a0, a1
 248              	# 0 "" 2
 249              	.LVL13:
  33:src/riscv.cpp ****                 __asm__ volatile("mv a0, %0" : : "r"(retVal));
 250              		.loc 1 33 17 is_stmt 1
  33:src/riscv.cpp ****                 __asm__ volatile("mv a0, %0" : : "r"(retVal));
 251              		.loc 1 33 40 is_stmt 0
 252              	#NO_APP
 253 00cc 97000000 		call	__mem_free@plt
 253      E7800000 
 254              	.LVL14:
  34:src/riscv.cpp ****                 break;
 255              		.loc 1 34 17 is_stmt 1
  34:src/riscv.cpp ****                 break;
 256              		.loc 1 34 62 is_stmt 0
 257              	#APP
 258              	# 34 "src/riscv.cpp" 1
  35:src/riscv.cpp ****             }
 259              		mv a0, a0
 260              	# 0 "" 2
 261              		.loc 1 35 17 is_stmt 1
 262              	#NO_APP
 263 00d8 6FF09FFC 		j	.L7
 264              	.LVL15:
 265              	.L11:
 266              	.LBE28:
 267              	.LBE34:
 268              	.LBE36:
  72:src/riscv.cpp ****     } else {
 269              		.loc 1 72 9
  72:src/riscv.cpp ****     } else {
 270              		.loc 1 72 24 is_stmt 0
 271 00dc 97000000 		call	console_handler@plt
 271      E7800000 
 272              	.LVL16:
 273              	.LBE39:
 274              		.loc 1 76 1
 275 00e4 6FF05FF7 		j	.L3
 276              		.cfi_endproc
 277              	.LFE17:
 279              	.Letext0:
GAS LISTING /tmp/ccSTHk43.s 			page 11


 280              		.file 3 "src/../h/../lib/hw.h"
 281              		.file 4 "src/../lib/mem.h"
 282              		.file 5 "src/../lib/console.h"
GAS LISTING /tmp/ccSTHk43.s 			page 12


DEFINED SYMBOLS
                            *ABS*:0000000000000000 riscv.cpp
     /tmp/ccSTHk43.s:9      .text:0000000000000000 _ZN5Riscv10popSppSpieEv
     /tmp/ccSTHk43.s:13     .text:0000000000000000 .L0 
     /tmp/ccSTHk43.s:14     .text:0000000000000000 .L0 
     /tmp/ccSTHk43.s:15     .text:0000000000000004 .L0 
     /tmp/ccSTHk43.s:17     .text:0000000000000008 .L0 
     /tmp/ccSTHk43.s:19     .text:000000000000000c .L0 
     /tmp/ccSTHk43.s:21     .text:000000000000000c .L0 
       src/riscv.cpp:11     .text:000000000000000c .L0 
     /tmp/ccSTHk43.s:27     .text:0000000000000010 .L0 
       src/riscv.cpp:12     .text:0000000000000010 .L0 
     /tmp/ccSTHk43.s:33     .text:0000000000000014 .L0 
     /tmp/ccSTHk43.s:34     .text:0000000000000018 .L0 
     /tmp/ccSTHk43.s:35     .text:0000000000000018 .L0 
     /tmp/ccSTHk43.s:37     .text:000000000000001c .L0 
     /tmp/ccSTHk43.s:39     .text:0000000000000020 .L0 
     /tmp/ccSTHk43.s:45     .text:0000000000000020 _ZN5Riscv20handleSupervisorTrapEv
     /tmp/ccSTHk43.s:48     .text:0000000000000020 .L0 
     /tmp/ccSTHk43.s:49     .text:0000000000000020 .L0 
     /tmp/ccSTHk43.s:50     .text:0000000000000024 .L0 
     /tmp/ccSTHk43.s:53     .text:000000000000002c .L0 
     /tmp/ccSTHk43.s:54     .text:000000000000002c .L0 
     /tmp/ccSTHk43.s:56     .text:0000000000000030 .L0 
     /tmp/ccSTHk43.s:61     .text:0000000000000030 .L0 
     /tmp/ccSTHk43.s:62     .text:0000000000000030 .L0 
     /tmp/ccSTHk43.s:63     .text:0000000000000030 .L0 
  src/../h/riscv.hpp:91     .text:0000000000000030 .L0 
     /tmp/ccSTHk43.s:71     .text:0000000000000038 .L0 
     /tmp/ccSTHk43.s:72     .text:0000000000000038 .L0 
     /tmp/ccSTHk43.s:78     .text:000000000000003c .L0 
     /tmp/ccSTHk43.s:79     .text:000000000000003c .L0 
     /tmp/ccSTHk43.s:81     .text:0000000000000040 .L0 
     /tmp/ccSTHk43.s:84     .text:0000000000000048 .L0 
     /tmp/ccSTHk43.s:92     .text:0000000000000058 .L0 
     /tmp/ccSTHk43.s:93     .text:000000000000005c .L0 
     /tmp/ccSTHk43.s:94     .text:000000000000005c .L0 
     /tmp/ccSTHk43.s:96     .text:0000000000000060 .L0 
     /tmp/ccSTHk43.s:97     .text:0000000000000060 .L0 
     /tmp/ccSTHk43.s:99     .text:0000000000000064 .L0 
     /tmp/ccSTHk43.s:103    .text:0000000000000068 .L0 
     /tmp/ccSTHk43.s:109    .text:0000000000000068 .L0 
     /tmp/ccSTHk43.s:110    .text:0000000000000068 .L0 
     /tmp/ccSTHk43.s:111    .text:0000000000000068 .L0 
  src/../h/riscv.hpp:103    .text:0000000000000068 .L0 
     /tmp/ccSTHk43.s:119    .text:0000000000000070 .L0 
     /tmp/ccSTHk43.s:120    .text:0000000000000070 .L0 
     /tmp/ccSTHk43.s:124    .text:0000000000000074 .L0 
     /tmp/ccSTHk43.s:126    .text:0000000000000078 .L0 
     /tmp/ccSTHk43.s:130    .text:000000000000007c .L0 
     /tmp/ccSTHk43.s:131    .text:000000000000007c .L0 
     /tmp/ccSTHk43.s:132    .text:000000000000007c .L0 
  src/../h/riscv.hpp:171    .text:000000000000007c .L0 
     /tmp/ccSTHk43.s:140    .text:0000000000000084 .L0 
     /tmp/ccSTHk43.s:141    .text:0000000000000084 .L0 
     /tmp/ccSTHk43.s:145    .text:0000000000000088 .L0 
     /tmp/ccSTHk43.s:147    .text:000000000000008c .L0 
GAS LISTING /tmp/ccSTHk43.s 			page 13


     /tmp/ccSTHk43.s:148    .text:000000000000008c .L0 
       src/riscv.cpp:21     .text:000000000000008c .L0 
     /tmp/ccSTHk43.s:157    .text:0000000000000090 .L0 
     /tmp/ccSTHk43.s:166    .text:00000000000000a0 .L0 
     /tmp/ccSTHk43.s:167    .text:00000000000000a0 .L0 
     /tmp/ccSTHk43.s:172    .text:00000000000000a4 .L0 
  src/../h/riscv.hpp:177    .text:00000000000000a4 .L0 
     /tmp/ccSTHk43.s:182    .text:00000000000000a8 .L0 
     /tmp/ccSTHk43.s:183    .text:00000000000000a8 .L0 
     /tmp/ccSTHk43.s:188    .text:00000000000000ac .L0 
  src/../h/riscv.hpp:109    .text:00000000000000ac .L0 
     /tmp/ccSTHk43.s:195    .text:00000000000000b0 .L0 
     /tmp/ccSTHk43.s:203    .text:00000000000000b4 .L0 
     /tmp/ccSTHk43.s:208    .text:00000000000000b4 .L0 
     /tmp/ccSTHk43.s:209    .text:00000000000000b4 .L0 
     /tmp/ccSTHk43.s:210    .text:00000000000000b4 .L0 
       src/riscv.cpp:25     .text:00000000000000b4 .L0 
     /tmp/ccSTHk43.s:217    .text:00000000000000b8 .L0 
     /tmp/ccSTHk43.s:219    .text:00000000000000b8 .L0 
     /tmp/ccSTHk43.s:222    .text:00000000000000c0 .L0 
       src/riscv.cpp:27     .text:00000000000000c0 .L0 
     /tmp/ccSTHk43.s:229    .text:00000000000000c4 .L0 
     /tmp/ccSTHk43.s:237    .text:00000000000000c8 .L0 
     /tmp/ccSTHk43.s:242    .text:00000000000000c8 .L0 
     /tmp/ccSTHk43.s:243    .text:00000000000000c8 .L0 
     /tmp/ccSTHk43.s:244    .text:00000000000000c8 .L0 
       src/riscv.cpp:32     .text:00000000000000c8 .L0 
     /tmp/ccSTHk43.s:251    .text:00000000000000cc .L0 
     /tmp/ccSTHk43.s:253    .text:00000000000000cc .L0 
     /tmp/ccSTHk43.s:256    .text:00000000000000d4 .L0 
       src/riscv.cpp:34     .text:00000000000000d4 .L0 
     /tmp/ccSTHk43.s:263    .text:00000000000000d8 .L0 
     /tmp/ccSTHk43.s:270    .text:00000000000000dc .L0 
     /tmp/ccSTHk43.s:271    .text:00000000000000dc .L0 
     /tmp/ccSTHk43.s:275    .text:00000000000000e4 .L0 
     /tmp/ccSTHk43.s:276    .text:00000000000000e8 .L0 
     /tmp/ccSTHk43.s:283    .text:00000000000000e8 .L0 
     /tmp/ccSTHk43.s:102    .text:0000000000000068 .L10
     /tmp/ccSTHk43.s:265    .text:00000000000000dc .L11
     /tmp/ccSTHk43.s:197    .text:00000000000000b4 .L5
     /tmp/ccSTHk43.s:231    .text:00000000000000c8 .L6
     /tmp/ccSTHk43.s:89     .text:0000000000000058 .L3
     /tmp/ccSTHk43.s:163    .text:00000000000000a0 .L7
     /tmp/ccSTHk43.s:852    .debug_abbrev:0000000000000000 .Ldebug_abbrev0
     /tmp/ccSTHk43.s:1516   .debug_str:00000000000001c9 .LASF64
     /tmp/ccSTHk43.s:1532   .debug_str:00000000000002f2 .LASF65
     /tmp/ccSTHk43.s:1578   .debug_str:000000000000045d .LASF66
     /tmp/ccSTHk43.s:5      .text:0000000000000000 .Ltext0
     /tmp/ccSTHk43.s:279    .text:00000000000000e8 .Letext0
     /tmp/ccSTHk43.s:1448   .debug_line:0000000000000000 .Ldebug_line0
     /tmp/ccSTHk43.s:1528   .debug_str:00000000000002dd .LASF0
     /tmp/ccSTHk43.s:1508   .debug_str:0000000000000187 .LASF1
     /tmp/ccSTHk43.s:1496   .debug_str:0000000000000139 .LASF2
     /tmp/ccSTHk43.s:1466   .debug_str:0000000000000071 .LASF4
     /tmp/ccSTHk43.s:1504   .debug_str:000000000000016d .LASF3
     /tmp/ccSTHk43.s:1454   .debug_str:0000000000000026 .LASF5
     /tmp/ccSTHk43.s:1452   .debug_str:0000000000000013 .LASF6
GAS LISTING /tmp/ccSTHk43.s 			page 14


     /tmp/ccSTHk43.s:1484   .debug_str:00000000000000d5 .LASF7
     /tmp/ccSTHk43.s:1542   .debug_str:0000000000000336 .LASF8
     /tmp/ccSTHk43.s:1464   .debug_str:0000000000000063 .LASF9
     /tmp/ccSTHk43.s:1588   .debug_str:00000000000004a1 .LASF10
     /tmp/ccSTHk43.s:1490   .debug_str:000000000000010b .LASF11
     /tmp/ccSTHk43.s:1574   .debug_str:0000000000000439 .LASF12
     /tmp/ccSTHk43.s:1550   .debug_str:0000000000000384 .LASF13
     /tmp/ccSTHk43.s:1510   .debug_str:000000000000019a .LASF14
     /tmp/ccSTHk43.s:1472   .debug_str:0000000000000098 .LASF15
     /tmp/ccSTHk43.s:1546   .debug_str:0000000000000358 .LASF16
     /tmp/ccSTHk43.s:1474   .debug_str:00000000000000ae .LASF67
     /tmp/ccSTHk43.s:1514   .debug_str:00000000000001be .LASF49
     /tmp/ccSTHk43.s:1562   .debug_str:00000000000003f2 .LASF51
     /tmp/ccSTHk43.s:1518   .debug_str:000000000000028d .LASF17
     /tmp/ccSTHk43.s:1456   .debug_str:000000000000002d .LASF19
     /tmp/ccSTHk43.s:1520   .debug_str:0000000000000296 .LASF21
     /tmp/ccSTHk43.s:1468   .debug_str:0000000000000078 .LASF23
     /tmp/ccSTHk43.s:1534   .debug_str:0000000000000300 .LASF18
     /tmp/ccSTHk43.s:1502   .debug_str:000000000000015a .LASF20
     /tmp/ccSTHk43.s:1480   .debug_str:00000000000000c7 .LASF22
     /tmp/ccSTHk43.s:1488   .debug_str:00000000000000f8 .LASF24
     /tmp/ccSTHk43.s:1530   .debug_str:00000000000002ea .LASF25
     /tmp/ccSTHk43.s:1556   .debug_str:00000000000003cc .LASF26
     /tmp/ccSTHk43.s:1506   .debug_str:000000000000017f .LASF27
     /tmp/ccSTHk43.s:1540   .debug_str:0000000000000322 .LASF28
     /tmp/ccSTHk43.s:1564   .debug_str:000000000000040a .LASF29
     /tmp/ccSTHk43.s:1460   .debug_str:0000000000000049 .LASF30
     /tmp/ccSTHk43.s:1498   .debug_str:0000000000000147 .LASF31
     /tmp/ccSTHk43.s:1576   .debug_str:0000000000000449 .LASF32
     /tmp/ccSTHk43.s:1584   .debug_str:000000000000048b .LASF33
     /tmp/ccSTHk43.s:1450   .debug_str:0000000000000000 .LASF34
     /tmp/ccSTHk43.s:1458   .debug_str:0000000000000042 .LASF35
     /tmp/ccSTHk43.s:1538   .debug_str:000000000000030f .LASF36
     /tmp/ccSTHk43.s:1572   .debug_str:0000000000000433 .LASF37
     /tmp/ccSTHk43.s:1544   .debug_str:0000000000000346 .LASF38
     /tmp/ccSTHk43.s:1462   .debug_str:000000000000005d .LASF39
     /tmp/ccSTHk43.s:1570   .debug_str:0000000000000421 .LASF40
     /tmp/ccSTHk43.s:1558   .debug_str:00000000000003e0 .LASF41
     /tmp/ccSTHk43.s:1524   .debug_str:00000000000002a9 .LASF42
     /tmp/ccSTHk43.s:1470   .debug_str:000000000000008d .LASF43
     /tmp/ccSTHk43.s:1512   .debug_str:00000000000001a6 .LASF44
     /tmp/ccSTHk43.s:1522   .debug_str:000000000000029f .LASF45
     /tmp/ccSTHk43.s:1548   .debug_str:000000000000036e .LASF46
     /tmp/ccSTHk43.s:1568   .debug_str:0000000000000417 .LASF47
     /tmp/ccSTHk43.s:1554   .debug_str:00000000000003b6 .LASF48
     /tmp/ccSTHk43.s:1586   .debug_str:0000000000000492 .LASF50
     /tmp/ccSTHk43.s:1526   .debug_str:00000000000002c1 .LASF52
     /tmp/ccSTHk43.s:1494   .debug_str:0000000000000124 .LASF68
     /tmp/ccSTHk43.s:1552   .debug_str:0000000000000394 .LASF69
     /tmp/ccSTHk43.s:46     .text:0000000000000020 .LFB17
     /tmp/ccSTHk43.s:277    .text:00000000000000e8 .LFE17
     /tmp/ccSTHk43.s:1482   .debug_str:00000000000000ce .LASF53
     /tmp/ccSTHk43.s:1335   .debug_loc:0000000000000000 .LLST0
     /tmp/ccSTHk43.s:1438   .debug_ranges:0000000000000000 .Ldebug_ranges0
     /tmp/ccSTHk43.s:1566   .debug_str:0000000000000412 .LASF54
     /tmp/ccSTHk43.s:1536   .debug_str:0000000000000307 .LASF55
     /tmp/ccSTHk43.s:1476   .debug_str:00000000000000b4 .LASF56
GAS LISTING /tmp/ccSTHk43.s 			page 15


     /tmp/ccSTHk43.s:1368   .debug_loc:0000000000000088 .LLST1
     /tmp/ccSTHk43.s:207    .text:00000000000000b4 .LBB27
     /tmp/ccSTHk43.s:232    .text:00000000000000c8 .LBE27
     /tmp/ccSTHk43.s:1582   .debug_str:0000000000000486 .LASF57
     /tmp/ccSTHk43.s:1383   .debug_loc:00000000000000d1 .LLST2
     /tmp/ccSTHk43.s:1492   .debug_str:000000000000011a .LASF58
     /tmp/ccSTHk43.s:1390   .debug_loc:00000000000000f4 .LLST3
     /tmp/ccSTHk43.s:220    .text:00000000000000c0 .LVL11
     /tmp/ccSTHk43.s:241    .text:00000000000000c8 .LBB28
     /tmp/ccSTHk43.s:266    .text:00000000000000dc .LBE28
     /tmp/ccSTHk43.s:1560   .debug_str:00000000000003eb .LASF59
     /tmp/ccSTHk43.s:1397   .debug_loc:0000000000000117 .LLST4
     /tmp/ccSTHk43.s:1478   .debug_str:00000000000000c0 .LASF60
     /tmp/ccSTHk43.s:1404   .debug_loc:000000000000013a .LLST5
     /tmp/ccSTHk43.s:254    .text:00000000000000d4 .LVL14
     /tmp/ccSTHk43.s:107    .text:0000000000000068 .LBB22
     /tmp/ccSTHk43.s:122    .text:0000000000000074 .LBE22
     /tmp/ccSTHk43.s:128    .text:000000000000007c .LBB24
     /tmp/ccSTHk43.s:143    .text:0000000000000088 .LBE24
     /tmp/ccSTHk43.s:169    .text:00000000000000a4 .LBB29
     /tmp/ccSTHk43.s:180    .text:00000000000000a8 .LBE29
     /tmp/ccSTHk43.s:1411   .debug_loc:000000000000015d .LLST6
     /tmp/ccSTHk43.s:185    .text:00000000000000ac .LBB31
     /tmp/ccSTHk43.s:199    .text:00000000000000b4 .LBE31
     /tmp/ccSTHk43.s:1418   .debug_loc:0000000000000180 .LLST7
     /tmp/ccSTHk43.s:58     .text:0000000000000030 .LBB18
     /tmp/ccSTHk43.s:75     .text:000000000000003c .LBE18
     /tmp/ccSTHk43.s:272    .text:00000000000000e4 .LVL16
     /tmp/ccSTHk43.s:10     .text:0000000000000000 .LFB16
     /tmp/ccSTHk43.s:40     .text:0000000000000020 .LFE16
     /tmp/ccSTHk43.s:1580   .debug_str:000000000000047a .LASF61
     /tmp/ccSTHk43.s:1500   .debug_str:000000000000014f .LASF62
     /tmp/ccSTHk43.s:1486   .debug_str:00000000000000e8 .LASF63
     /tmp/ccSTHk43.s:73     .text:000000000000003c .LVL0
     /tmp/ccSTHk43.s:88     .text:0000000000000058 .LVL1
     /tmp/ccSTHk43.s:101    .text:0000000000000068 .LVL2
     /tmp/ccSTHk43.s:158    .text:0000000000000094 .LVL4
     /tmp/ccSTHk43.s:162    .text:00000000000000a0 .LVL5
     /tmp/ccSTHk43.s:196    .text:00000000000000b4 .LVL9
     /tmp/ccSTHk43.s:230    .text:00000000000000c8 .LVL12
     /tmp/ccSTHk43.s:264    .text:00000000000000dc .LVL15
     /tmp/ccSTHk43.s:153    .text:0000000000000090 .LVL3
     /tmp/ccSTHk43.s:215    .text:00000000000000b8 .LVL10
     /tmp/ccSTHk43.s:249    .text:00000000000000cc .LVL13
     /tmp/ccSTHk43.s:168    .text:00000000000000a4 .LVL6
     /tmp/ccSTHk43.s:177    .text:00000000000000a8 .LVL7
     /tmp/ccSTHk43.s:184    .text:00000000000000ac .LVL8
     /tmp/ccSTHk43.s:284    .debug_info:0000000000000000 .Ldebug_info0
     /tmp/ccSTHk43.s:105    .text:0000000000000068 .LBB21
     /tmp/ccSTHk43.s:200    .text:00000000000000b4 .LBE21
     /tmp/ccSTHk43.s:205    .text:00000000000000b4 .LBB35
     /tmp/ccSTHk43.s:234    .text:00000000000000c8 .LBE35
     /tmp/ccSTHk43.s:239    .text:00000000000000c8 .LBB36
     /tmp/ccSTHk43.s:268    .text:00000000000000dc .LBE36

UNDEFINED SYMBOLS
__mem_alloc
GAS LISTING /tmp/ccSTHk43.s 			page 16


__mem_free
console_handler
