GAS LISTING /tmp/ccjK3RmS.s 			page 1


   1              		.file	"syscall_c.cpp"
   2              		.option pic
   3              		.option norelax
   4              		.text
   5              	.Ltext0:
   6              		.align	2
   7              		.globl	_Z9mem_allocm
   9              	_Z9mem_allocm:
  10              	.LFB0:
  11              		.file 1 "src/syscall_c.cpp"
   1:src/syscall_c.cpp **** //
   2:src/syscall_c.cpp **** // Created by os on 7/19/25.
   3:src/syscall_c.cpp **** //
   4:src/syscall_c.cpp **** 
   5:src/syscall_c.cpp **** #include "../h/syscall_c.hpp"
   6:src/syscall_c.cpp **** #include "../lib/console.h"
   7:src/syscall_c.cpp **** #include "../lib/hw.h"
   8:src/syscall_c.cpp **** 
   9:src/syscall_c.cpp **** void *mem_alloc(size_t size) {
  12              		.loc 1 9 30
  13              		.cfi_startproc
  14              	.LVL0:
  15 0000 130101FF 		addi	sp,sp,-16
  16              		.cfi_def_cfa_offset 16
  17 0004 23348100 		sd	s0,8(sp)
  18              		.cfi_offset 8, -8
  19 0008 13040101 		addi	s0,sp,16
  20              		.cfi_def_cfa 8, 0
  10:src/syscall_c.cpp ****     size_t newSize = size/MEM_BLOCK_SIZE;
  21              		.loc 1 10 5
  22              		.loc 1 10 12 is_stmt 0
  23 000c 93576500 		srli	a5,a0,6
  24              	.LVL1:
  11:src/syscall_c.cpp ****     if(size%MEM_BLOCK_SIZE != 0) {
  25              		.loc 1 11 5 is_stmt 1
  26              		.loc 1 11 12 is_stmt 0
  27 0010 1375F503 		andi	a0,a0,63
  28              	.LVL2:
  29              		.loc 1 11 5
  30 0014 63040500 		beqz	a0,.L2
  12:src/syscall_c.cpp ****         newSize += 1;
  31              		.loc 1 12 9 is_stmt 1
  32              		.loc 1 12 17 is_stmt 0
  33 0018 93871700 		addi	a5,a5,1
  34              	.LVL3:
  35              	.L2:
  13:src/syscall_c.cpp ****     }
  14:src/syscall_c.cpp ****     void* returnAdr = nullptr;
  36              		.loc 1 14 5 is_stmt 1
  15:src/syscall_c.cpp ****     __asm__ volatile("mv a1, %0" : : "r"(newSize));
  37              		.loc 1 15 5
  38              		.loc 1 15 51 is_stmt 0
  39              	#APP
  40              	# 15 "src/syscall_c.cpp" 1
  16              	    __asm__ volatile("mv a0, %0" : : "r"(0x01));
  41              		mv a1, a5
  42              	# 0 "" 2
GAS LISTING /tmp/ccjK3RmS.s 			page 2


  43              		.loc 1 16 5 is_stmt 1
  44              		.loc 1 16 48 is_stmt 0
  45              	#NO_APP
  46 0020 93071000 		li	a5,1
  47              	.LVL4:
  48              	#APP
  49              	# 16 "src/syscall_c.cpp" 1
  17              	    __asm__ volatile("ecall");
  50              		mv a0, a5
  51              	# 0 "" 2
  52              		.loc 1 17 5 is_stmt 1
  53              		.loc 1 17 30 is_stmt 0
  54              	# 17 "src/syscall_c.cpp" 1
  18              	    __asm__ volatile("mv %0, a0" : "=r"(returnAdr));
  55              		ecall
  56              	# 0 "" 2
  57              		.loc 1 18 5 is_stmt 1
  58              		.loc 1 18 52 is_stmt 0
  59              	# 18 "src/syscall_c.cpp" 1
  19              	    return returnAdr;
  60              		mv a0, a0
  61              	# 0 "" 2
  62              	.LVL5:
  63              		.loc 1 19 5 is_stmt 1
  20:src/syscall_c.cpp **** }
  64              		.loc 1 20 1 is_stmt 0
  65              	#NO_APP
  66 0030 03348100 		ld	s0,8(sp)
  67              		.cfi_restore 8
  68              		.cfi_def_cfa 2, 16
  69 0034 13010101 		addi	sp,sp,16
  70              		.cfi_def_cfa_offset 0
  71 0038 67800000 		jr	ra
  72              		.cfi_endproc
  73              	.LFE0:
  75              		.align	2
  76              		.globl	_Z8mem_freePv
  78              	_Z8mem_freePv:
  79              	.LFB1:
  21:src/syscall_c.cpp **** 
  22:src/syscall_c.cpp **** int mem_free(void *adrPtr) {
  80              		.loc 1 22 28 is_stmt 1
  81              		.cfi_startproc
  82              	.LVL6:
  83 003c 130101FF 		addi	sp,sp,-16
  84              		.cfi_def_cfa_offset 16
  85 0040 23348100 		sd	s0,8(sp)
  86              		.cfi_offset 8, -8
  87 0044 13040101 		addi	s0,sp,16
  88              		.cfi_def_cfa 8, 0
  23:src/syscall_c.cpp ****     int retVal = -1;
  89              		.loc 1 23 5
  90              	.LVL7:
  24:src/syscall_c.cpp ****     __asm__ volatile("mv a1, %0" : : "r"(adrPtr));
  91              		.loc 1 24 5
  92              		.loc 1 24 50 is_stmt 0
  93              	#APP
GAS LISTING /tmp/ccjK3RmS.s 			page 3


  94              	# 24 "src/syscall_c.cpp" 1
  25              	    __asm__ volatile("mv a0, %0" : : "r"(0x02));
  95              		mv a1, a0
  96              	# 0 "" 2
  97              		.loc 1 25 5 is_stmt 1
  98              		.loc 1 25 48 is_stmt 0
  99              	#NO_APP
 100 004c 93072000 		li	a5,2
 101              	#APP
 102              	# 25 "src/syscall_c.cpp" 1
  26              	    __asm__ volatile("ecall");
 103              		mv a0, a5
 104              	# 0 "" 2
 105              		.loc 1 26 5 is_stmt 1
 106              		.loc 1 26 30 is_stmt 0
 107              	# 26 "src/syscall_c.cpp" 1
  27              	    __asm__ volatile("mv %0, a0" : "=r"(retVal));
 108              		ecall
 109              	# 0 "" 2
 110              		.loc 1 27 5 is_stmt 1
 111              		.loc 1 27 49 is_stmt 0
 112              	# 27 "src/syscall_c.cpp" 1
  28              	    return retVal;
 113              		mv a0, a0
 114              	# 0 "" 2
 115              	.LVL8:
 116              		.loc 1 28 5 is_stmt 1
  29:src/syscall_c.cpp **** }
 117              		.loc 1 29 1 is_stmt 0
 118              	#NO_APP
 119 005c 1B050500 		sext.w	a0,a0
 120 0060 03348100 		ld	s0,8(sp)
 121              		.cfi_restore 8
 122              		.cfi_def_cfa 2, 16
 123 0064 13010101 		addi	sp,sp,16
 124              		.cfi_def_cfa_offset 0
 125 0068 67800000 		jr	ra
 126              		.cfi_endproc
 127              	.LFE1:
 129              		.align	2
 130              		.globl	_Z13thread_createPP3TCBPFvPvES2_
 132              	_Z13thread_createPP3TCBPFvPvES2_:
 133              	.LFB2:
  30:src/syscall_c.cpp **** 
  31:src/syscall_c.cpp **** int thread_create(thread_t *handle, void (*start_routine)(void *), void *arg) {
 134              		.loc 1 31 79 is_stmt 1
 135              		.cfi_startproc
 136              	.LVL9:
 137 006c 130101FD 		addi	sp,sp,-48
 138              		.cfi_def_cfa_offset 48
 139 0070 23341102 		sd	ra,40(sp)
 140 0074 23308102 		sd	s0,32(sp)
 141 0078 233C9100 		sd	s1,24(sp)
 142 007c 23382101 		sd	s2,16(sp)
 143 0080 23343101 		sd	s3,8(sp)
 144              		.cfi_offset 1, -8
 145              		.cfi_offset 8, -16
GAS LISTING /tmp/ccjK3RmS.s 			page 4


 146              		.cfi_offset 9, -24
 147              		.cfi_offset 18, -32
 148              		.cfi_offset 19, -40
 149 0084 13040103 		addi	s0,sp,48
 150              		.cfi_def_cfa 8, 0
 151 0088 93040500 		mv	s1,a0
 152 008c 13890500 		mv	s2,a1
 153 0090 93090600 		mv	s3,a2
  32:src/syscall_c.cpp ****     int retVal = -1;
 154              		.loc 1 32 5
 155              	.LVL10:
  33:src/syscall_c.cpp ****     char* stack_space = (char*)mem_alloc(DEFAULT_STACK_SIZE);
 156              		.loc 1 33 5
 157              		.loc 1 33 41 is_stmt 0
 158 0094 37150000 		li	a0,4096
 159              	.LVL11:
 160 0098 97000000 		call	_Z9mem_allocm
 160      E7800000 
 161              	.LVL12:
  34:src/syscall_c.cpp ****     __asm__ volatile("mv a4, %0" : : "r"(stack_space));
 162              		.loc 1 34 5 is_stmt 1
 163              		.loc 1 34 55 is_stmt 0
 164              	#APP
 165              	# 34 "src/syscall_c.cpp" 1
  35              	    __asm__ volatile("mv a3, %0" : : "r"(arg));
 166              		mv a4, a0
 167              	# 0 "" 2
 168              		.loc 1 35 5 is_stmt 1
 169              		.loc 1 35 47 is_stmt 0
 170              	# 35 "src/syscall_c.cpp" 1
  36              	    __asm__ volatile("mv a2, %0" : : "r"(start_routine));
 171              		mv a3, s3
 172              	# 0 "" 2
 173              		.loc 1 36 5 is_stmt 1
 174              		.loc 1 36 57 is_stmt 0
 175              	# 36 "src/syscall_c.cpp" 1
  37              	    __asm__ volatile("mv a1, %0" : : "r"(handle));
 176              		mv a2, s2
 177              	# 0 "" 2
 178              		.loc 1 37 5 is_stmt 1
 179              		.loc 1 37 50 is_stmt 0
 180              	# 37 "src/syscall_c.cpp" 1
  38              	    __asm__ volatile("mv a0, %0" : : "r"(0x11));
 181              		mv a1, s1
 182              	# 0 "" 2
 183              		.loc 1 38 5 is_stmt 1
 184              		.loc 1 38 48 is_stmt 0
 185              	#NO_APP
 186 00b0 93071001 		li	a5,17
 187              	#APP
 188              	# 38 "src/syscall_c.cpp" 1
  39              	    __asm__ volatile("ecall");
 189              		mv a0, a5
 190              	# 0 "" 2
 191              		.loc 1 39 5 is_stmt 1
 192              		.loc 1 39 30 is_stmt 0
 193              	# 39 "src/syscall_c.cpp" 1
GAS LISTING /tmp/ccjK3RmS.s 			page 5


  40              	    __asm__ volatile("mv %0, a0" : "=r"(retVal));
 194              		ecall
 195              	# 0 "" 2
 196              		.loc 1 40 5 is_stmt 1
 197              		.loc 1 40 49 is_stmt 0
 198              	# 40 "src/syscall_c.cpp" 1
  41              	    return retVal;
 199              		mv a0, a0
 200              	# 0 "" 2
 201              	.LVL13:
 202              		.loc 1 41 5 is_stmt 1
  42:src/syscall_c.cpp **** }
 203              		.loc 1 42 1 is_stmt 0
 204              	#NO_APP
 205 00c0 1B050500 		sext.w	a0,a0
 206 00c4 83308102 		ld	ra,40(sp)
 207              		.cfi_restore 1
 208 00c8 03340102 		ld	s0,32(sp)
 209              		.cfi_restore 8
 210              		.cfi_def_cfa 2, 48
 211 00cc 83348101 		ld	s1,24(sp)
 212              		.cfi_restore 9
 213              	.LVL14:
 214 00d0 03390101 		ld	s2,16(sp)
 215              		.cfi_restore 18
 216              	.LVL15:
 217 00d4 83398100 		ld	s3,8(sp)
 218              		.cfi_restore 19
 219              	.LVL16:
 220 00d8 13010103 		addi	sp,sp,48
 221              		.cfi_def_cfa_offset 0
 222 00dc 67800000 		jr	ra
 223              		.cfi_endproc
 224              	.LFE2:
 226              		.align	2
 227              		.globl	_Z11thread_exitv
 229              	_Z11thread_exitv:
 230              	.LFB3:
  43:src/syscall_c.cpp **** 
  44:src/syscall_c.cpp **** int thread_exit() {
 231              		.loc 1 44 19 is_stmt 1
 232              		.cfi_startproc
 233 00e0 130101FF 		addi	sp,sp,-16
 234              		.cfi_def_cfa_offset 16
 235 00e4 23348100 		sd	s0,8(sp)
 236              		.cfi_offset 8, -8
 237 00e8 13040101 		addi	s0,sp,16
 238              		.cfi_def_cfa 8, 0
  45:src/syscall_c.cpp ****     int retVal = -1;
 239              		.loc 1 45 5
 240              	.LVL17:
  46:src/syscall_c.cpp ****     __asm__ volatile("mv a0, %0" : : "r"(0x12));
 241              		.loc 1 46 5
 242              		.loc 1 46 48 is_stmt 0
 243 00ec 93072001 		li	a5,18
 244              	#APP
 245              	# 46 "src/syscall_c.cpp" 1
GAS LISTING /tmp/ccjK3RmS.s 			page 6


  47              	    __asm__ volatile("ecall");
 246              		mv a0, a5
 247              	# 0 "" 2
 248              		.loc 1 47 5 is_stmt 1
 249              		.loc 1 47 30 is_stmt 0
 250              	# 47 "src/syscall_c.cpp" 1
  48              	    __asm__ volatile("mv %0, a0" : "=r"(retVal));
 251              		ecall
 252              	# 0 "" 2
 253              		.loc 1 48 5 is_stmt 1
 254              		.loc 1 48 49 is_stmt 0
 255              	# 48 "src/syscall_c.cpp" 1
  49              	    return retVal;
 256              		mv a0, a0
 257              	# 0 "" 2
 258              	.LVL18:
 259              		.loc 1 49 5 is_stmt 1
  50:src/syscall_c.cpp **** }
 260              		.loc 1 50 1 is_stmt 0
 261              	#NO_APP
 262 00fc 1B050500 		sext.w	a0,a0
 263 0100 03348100 		ld	s0,8(sp)
 264              		.cfi_restore 8
 265              		.cfi_def_cfa 2, 16
 266 0104 13010101 		addi	sp,sp,16
 267              		.cfi_def_cfa_offset 0
 268 0108 67800000 		jr	ra
 269              		.cfi_endproc
 270              	.LFE3:
 272              		.align	2
 273              		.globl	_Z15thread_dispatchv
 275              	_Z15thread_dispatchv:
 276              	.LFB4:
  51:src/syscall_c.cpp **** 
  52:src/syscall_c.cpp **** void thread_dispatch() {
 277              		.loc 1 52 24 is_stmt 1
 278              		.cfi_startproc
 279 010c 130101FF 		addi	sp,sp,-16
 280              		.cfi_def_cfa_offset 16
 281 0110 23348100 		sd	s0,8(sp)
 282              		.cfi_offset 8, -8
 283 0114 13040101 		addi	s0,sp,16
 284              		.cfi_def_cfa 8, 0
  53:src/syscall_c.cpp ****     __asm__ volatile("mv a0, %0" : : "r"(0x13));
 285              		.loc 1 53 5
 286              		.loc 1 53 48 is_stmt 0
 287 0118 93073001 		li	a5,19
 288              	#APP
 289              	# 53 "src/syscall_c.cpp" 1
  54              	    __asm__ volatile("ecall");
 290              		mv a0, a5
 291              	# 0 "" 2
 292              		.loc 1 54 5 is_stmt 1
 293              		.loc 1 54 30 is_stmt 0
 294              	# 54 "src/syscall_c.cpp" 1
  55              	}
 295              		ecall
GAS LISTING /tmp/ccjK3RmS.s 			page 7


 296              	# 0 "" 2
 297              		.loc 1 55 1
 298              	#NO_APP
 299 0124 03348100 		ld	s0,8(sp)
 300              		.cfi_restore 8
 301              		.cfi_def_cfa 2, 16
 302 0128 13010101 		addi	sp,sp,16
 303              		.cfi_def_cfa_offset 0
 304 012c 67800000 		jr	ra
 305              		.cfi_endproc
 306              	.LFE4:
 308              		.align	2
 309              		.globl	_Z8sem_openPP4_semj
 311              	_Z8sem_openPP4_semj:
 312              	.LFB5:
  56:src/syscall_c.cpp **** 
  57:src/syscall_c.cpp **** int sem_open(sem_t *handle, unsigned int init) {
 313              		.loc 1 57 48 is_stmt 1
 314              		.cfi_startproc
 315              	.LVL19:
 316 0130 130101FF 		addi	sp,sp,-16
 317              		.cfi_def_cfa_offset 16
 318 0134 23348100 		sd	s0,8(sp)
 319              		.cfi_offset 8, -8
 320 0138 13040101 		addi	s0,sp,16
 321              		.cfi_def_cfa 8, 0
  58:src/syscall_c.cpp ****     int retVal = -1;
 322              		.loc 1 58 5
 323              	.LVL20:
  59:src/syscall_c.cpp ****     __asm__ volatile("mv a2, %0" : : "r"(init));
 324              		.loc 1 59 5
 325              		.loc 1 59 48 is_stmt 0
 326              	#APP
 327              	# 59 "src/syscall_c.cpp" 1
  60              	    __asm__ volatile("mv a1, %0" : : "r"(handle));
 328              		mv a2, a1
 329              	# 0 "" 2
 330              		.loc 1 60 5 is_stmt 1
 331              		.loc 1 60 50 is_stmt 0
 332              	# 60 "src/syscall_c.cpp" 1
  61              	    __asm__ volatile("mv a0, %0" : : "r"(0x21));
 333              		mv a1, a0
 334              	# 0 "" 2
 335              		.loc 1 61 5 is_stmt 1
 336              		.loc 1 61 48 is_stmt 0
 337              	#NO_APP
 338 0144 93071002 		li	a5,33
 339              	#APP
 340              	# 61 "src/syscall_c.cpp" 1
  62              	    __asm__ volatile("ecall");
 341              		mv a0, a5
 342              	# 0 "" 2
 343              		.loc 1 62 5 is_stmt 1
 344              		.loc 1 62 30 is_stmt 0
 345              	# 62 "src/syscall_c.cpp" 1
  63              	    __asm__ volatile("mv %0, a0" : "=r"(retVal));
 346              		ecall
GAS LISTING /tmp/ccjK3RmS.s 			page 8


 347              	# 0 "" 2
 348              		.loc 1 63 5 is_stmt 1
 349              		.loc 1 63 49 is_stmt 0
 350              	# 63 "src/syscall_c.cpp" 1
  64              	    return retVal;
 351              		mv a0, a0
 352              	# 0 "" 2
 353              	.LVL21:
 354              		.loc 1 64 5 is_stmt 1
  65:src/syscall_c.cpp **** }
 355              		.loc 1 65 1 is_stmt 0
 356              	#NO_APP
 357 0154 1B050500 		sext.w	a0,a0
 358 0158 03348100 		ld	s0,8(sp)
 359              		.cfi_restore 8
 360              		.cfi_def_cfa 2, 16
 361 015c 13010101 		addi	sp,sp,16
 362              		.cfi_def_cfa_offset 0
 363 0160 67800000 		jr	ra
 364              		.cfi_endproc
 365              	.LFE5:
 367              		.align	2
 368              		.globl	_Z9sem_closeP4_sem
 370              	_Z9sem_closeP4_sem:
 371              	.LFB6:
  66:src/syscall_c.cpp **** 
  67:src/syscall_c.cpp **** int sem_close(sem_t handle) {
 372              		.loc 1 67 29 is_stmt 1
 373              		.cfi_startproc
 374              	.LVL22:
 375 0164 130101FF 		addi	sp,sp,-16
 376              		.cfi_def_cfa_offset 16
 377 0168 23348100 		sd	s0,8(sp)
 378              		.cfi_offset 8, -8
 379 016c 13040101 		addi	s0,sp,16
 380              		.cfi_def_cfa 8, 0
  68:src/syscall_c.cpp ****     int retVal = -1;
 381              		.loc 1 68 5
 382              	.LVL23:
  69:src/syscall_c.cpp ****     __asm__ volatile("mv a1, %0" : : "r"(handle));
 383              		.loc 1 69 5
 384              		.loc 1 69 50 is_stmt 0
 385              	#APP
 386              	# 69 "src/syscall_c.cpp" 1
  70              	    __asm__ volatile("mv a0, %0" : : "r"(0x22));
 387              		mv a1, a0
 388              	# 0 "" 2
 389              		.loc 1 70 5 is_stmt 1
 390              		.loc 1 70 48 is_stmt 0
 391              	#NO_APP
 392 0174 93072002 		li	a5,34
 393              	#APP
 394              	# 70 "src/syscall_c.cpp" 1
  71              	    __asm__ volatile("ecall");
 395              		mv a0, a5
 396              	# 0 "" 2
 397              		.loc 1 71 5 is_stmt 1
GAS LISTING /tmp/ccjK3RmS.s 			page 9


 398              		.loc 1 71 30 is_stmt 0
 399              	# 71 "src/syscall_c.cpp" 1
  72              	    __asm__ volatile("mv %0, a0" : "=r"(retVal));
 400              		ecall
 401              	# 0 "" 2
 402              		.loc 1 72 5 is_stmt 1
 403              		.loc 1 72 49 is_stmt 0
 404              	# 72 "src/syscall_c.cpp" 1
  73              	    return retVal;
 405              		mv a0, a0
 406              	# 0 "" 2
 407              	.LVL24:
 408              		.loc 1 73 5 is_stmt 1
  74:src/syscall_c.cpp **** }
 409              		.loc 1 74 1 is_stmt 0
 410              	#NO_APP
 411 0184 1B050500 		sext.w	a0,a0
 412 0188 03348100 		ld	s0,8(sp)
 413              		.cfi_restore 8
 414              		.cfi_def_cfa 2, 16
 415 018c 13010101 		addi	sp,sp,16
 416              		.cfi_def_cfa_offset 0
 417 0190 67800000 		jr	ra
 418              		.cfi_endproc
 419              	.LFE6:
 421              		.align	2
 422              		.globl	_Z8sem_waitP4_sem
 424              	_Z8sem_waitP4_sem:
 425              	.LFB7:
  75:src/syscall_c.cpp **** 
  76:src/syscall_c.cpp **** int sem_wait(sem_t id) {
 426              		.loc 1 76 24 is_stmt 1
 427              		.cfi_startproc
 428              	.LVL25:
 429 0194 130101FF 		addi	sp,sp,-16
 430              		.cfi_def_cfa_offset 16
 431 0198 23348100 		sd	s0,8(sp)
 432              		.cfi_offset 8, -8
 433 019c 13040101 		addi	s0,sp,16
 434              		.cfi_def_cfa 8, 0
  77:src/syscall_c.cpp ****     int retVal = -1;
 435              		.loc 1 77 5
 436              	.LVL26:
  78:src/syscall_c.cpp ****     __asm__ volatile("mv a1, %0" : : "r"(id));
 437              		.loc 1 78 5
 438              		.loc 1 78 46 is_stmt 0
 439              	#APP
 440              	# 78 "src/syscall_c.cpp" 1
  79              	    __asm__ volatile("mv a0, %0" : : "r"(0x23));
 441              		mv a1, a0
 442              	# 0 "" 2
 443              		.loc 1 79 5 is_stmt 1
 444              		.loc 1 79 48 is_stmt 0
 445              	#NO_APP
 446 01a4 93073002 		li	a5,35
 447              	#APP
 448              	# 79 "src/syscall_c.cpp" 1
GAS LISTING /tmp/ccjK3RmS.s 			page 10


  80              	    __asm__ volatile("ecall");
 449              		mv a0, a5
 450              	# 0 "" 2
 451              		.loc 1 80 5 is_stmt 1
 452              		.loc 1 80 30 is_stmt 0
 453              	# 80 "src/syscall_c.cpp" 1
  81              	    __asm__ volatile("mv %0, a0" : "=r"(retVal));
 454              		ecall
 455              	# 0 "" 2
 456              		.loc 1 81 5 is_stmt 1
 457              		.loc 1 81 49 is_stmt 0
 458              	# 81 "src/syscall_c.cpp" 1
  82              	    return retVal;
 459              		mv a0, a0
 460              	# 0 "" 2
 461              	.LVL27:
 462              		.loc 1 82 5 is_stmt 1
  83:src/syscall_c.cpp **** }
 463              		.loc 1 83 1 is_stmt 0
 464              	#NO_APP
 465 01b4 1B050500 		sext.w	a0,a0
 466 01b8 03348100 		ld	s0,8(sp)
 467              		.cfi_restore 8
 468              		.cfi_def_cfa 2, 16
 469 01bc 13010101 		addi	sp,sp,16
 470              		.cfi_def_cfa_offset 0
 471 01c0 67800000 		jr	ra
 472              		.cfi_endproc
 473              	.LFE7:
 475              		.align	2
 476              		.globl	_Z10sem_signalP4_sem
 478              	_Z10sem_signalP4_sem:
 479              	.LFB8:
  84:src/syscall_c.cpp **** 
  85:src/syscall_c.cpp **** int sem_signal(sem_t id) {
 480              		.loc 1 85 26 is_stmt 1
 481              		.cfi_startproc
 482              	.LVL28:
 483 01c4 130101FF 		addi	sp,sp,-16
 484              		.cfi_def_cfa_offset 16
 485 01c8 23348100 		sd	s0,8(sp)
 486              		.cfi_offset 8, -8
 487 01cc 13040101 		addi	s0,sp,16
 488              		.cfi_def_cfa 8, 0
  86:src/syscall_c.cpp ****     int retVal = -1;
 489              		.loc 1 86 5
 490              	.LVL29:
  87:src/syscall_c.cpp ****     __asm__ volatile("mv a1, %0" : : "r"(id));
 491              		.loc 1 87 5
 492              		.loc 1 87 46 is_stmt 0
 493              	#APP
 494              	# 87 "src/syscall_c.cpp" 1
  88              	    __asm__ volatile("mv a0, %0" : : "r"(0x24));
 495              		mv a1, a0
 496              	# 0 "" 2
 497              		.loc 1 88 5 is_stmt 1
 498              		.loc 1 88 48 is_stmt 0
GAS LISTING /tmp/ccjK3RmS.s 			page 11


 499              	#NO_APP
 500 01d4 93074002 		li	a5,36
 501              	#APP
 502              	# 88 "src/syscall_c.cpp" 1
  89              	    __asm__ volatile("ecall");
 503              		mv a0, a5
 504              	# 0 "" 2
 505              		.loc 1 89 5 is_stmt 1
 506              		.loc 1 89 30 is_stmt 0
 507              	# 89 "src/syscall_c.cpp" 1
  90              	    __asm__ volatile("mv %0, a0" : "=r"(retVal));
 508              		ecall
 509              	# 0 "" 2
 510              		.loc 1 90 5 is_stmt 1
 511              		.loc 1 90 49 is_stmt 0
 512              	# 90 "src/syscall_c.cpp" 1
  91              	    return retVal;
 513              		mv a0, a0
 514              	# 0 "" 2
 515              	.LVL30:
 516              		.loc 1 91 5 is_stmt 1
  92:src/syscall_c.cpp **** }
 517              		.loc 1 92 1 is_stmt 0
 518              	#NO_APP
 519 01e4 1B050500 		sext.w	a0,a0
 520 01e8 03348100 		ld	s0,8(sp)
 521              		.cfi_restore 8
 522              		.cfi_def_cfa 2, 16
 523 01ec 13010101 		addi	sp,sp,16
 524              		.cfi_def_cfa_offset 0
 525 01f0 67800000 		jr	ra
 526              		.cfi_endproc
 527              	.LFE8:
 529              		.align	2
 530              		.globl	_Z11sem_trywaitP4_sem
 532              	_Z11sem_trywaitP4_sem:
 533              	.LFB9:
  93:src/syscall_c.cpp **** 
  94:src/syscall_c.cpp **** int sem_trywait(sem_t id) {
 534              		.loc 1 94 27 is_stmt 1
 535              		.cfi_startproc
 536              	.LVL31:
 537 01f4 130101FF 		addi	sp,sp,-16
 538              		.cfi_def_cfa_offset 16
 539 01f8 23348100 		sd	s0,8(sp)
 540              		.cfi_offset 8, -8
 541 01fc 13040101 		addi	s0,sp,16
 542              		.cfi_def_cfa 8, 0
  95:src/syscall_c.cpp ****     int retVal = -1;
 543              		.loc 1 95 5
 544              	.LVL32:
  96:src/syscall_c.cpp ****     __asm__ volatile("mv a1, %0" : : "r"(id));
 545              		.loc 1 96 5
 546              		.loc 1 96 46 is_stmt 0
 547              	#APP
 548              	# 96 "src/syscall_c.cpp" 1
  97              	    __asm__ volatile("mv a0, %0" : : "r"(0x26));
GAS LISTING /tmp/ccjK3RmS.s 			page 12


 549              		mv a1, a0
 550              	# 0 "" 2
 551              		.loc 1 97 5 is_stmt 1
 552              		.loc 1 97 48 is_stmt 0
 553              	#NO_APP
 554 0204 93076002 		li	a5,38
 555              	#APP
 556              	# 97 "src/syscall_c.cpp" 1
  98              	    __asm__ volatile("ecall");
 557              		mv a0, a5
 558              	# 0 "" 2
 559              		.loc 1 98 5 is_stmt 1
 560              		.loc 1 98 30 is_stmt 0
 561              	# 98 "src/syscall_c.cpp" 1
  99              	    __asm__ volatile("mv %0, a0" : "=r"(retVal));
 562              		ecall
 563              	# 0 "" 2
 564              		.loc 1 99 5 is_stmt 1
 565              		.loc 1 99 49 is_stmt 0
 566              	# 99 "src/syscall_c.cpp" 1
 100              	    return retVal;
 567              		mv a0, a0
 568              	# 0 "" 2
 569              	.LVL33:
 570              		.loc 1 100 5 is_stmt 1
 101:src/syscall_c.cpp **** }
 571              		.loc 1 101 1 is_stmt 0
 572              	#NO_APP
 573 0214 1B050500 		sext.w	a0,a0
 574 0218 03348100 		ld	s0,8(sp)
 575              		.cfi_restore 8
 576              		.cfi_def_cfa 2, 16
 577 021c 13010101 		addi	sp,sp,16
 578              		.cfi_def_cfa_offset 0
 579 0220 67800000 		jr	ra
 580              		.cfi_endproc
 581              	.LFE9:
 583              		.align	2
 584              		.globl	_Z4getcv
 586              	_Z4getcv:
 587              	.LFB10:
 102:src/syscall_c.cpp **** 
 103:src/syscall_c.cpp **** char getc() {
 588              		.loc 1 103 13 is_stmt 1
 589              		.cfi_startproc
 590 0224 130101FF 		addi	sp,sp,-16
 591              		.cfi_def_cfa_offset 16
 592 0228 23341100 		sd	ra,8(sp)
 593 022c 23308100 		sd	s0,0(sp)
 594              		.cfi_offset 1, -8
 595              		.cfi_offset 8, -16
 596 0230 13040101 		addi	s0,sp,16
 597              		.cfi_def_cfa 8, 0
 104:src/syscall_c.cpp ****     return __getc();
 598              		.loc 1 104 5
 599              		.loc 1 104 18 is_stmt 0
 600 0234 97000000 		call	__getc@plt
GAS LISTING /tmp/ccjK3RmS.s 			page 13


 600      E7800000 
 601              	.LVL34:
 105:src/syscall_c.cpp **** //    char c;
 106:src/syscall_c.cpp **** //    __asm__ volatile("mv a0, %0" : : "r"(0x41));
 107:src/syscall_c.cpp **** //    __asm__ volatile("ecall");
 108:src/syscall_c.cpp **** //    __asm__ volatile("mv %0, a0" : "=r"(c));
 109:src/syscall_c.cpp **** //    return c;
 110:src/syscall_c.cpp **** }
 602              		.loc 1 110 1
 603 023c 83308100 		ld	ra,8(sp)
 604              		.cfi_restore 1
 605 0240 03340100 		ld	s0,0(sp)
 606              		.cfi_restore 8
 607              		.cfi_def_cfa 2, 16
 608 0244 13010101 		addi	sp,sp,16
 609              		.cfi_def_cfa_offset 0
 610 0248 67800000 		jr	ra
 611              		.cfi_endproc
 612              	.LFE10:
 614              		.align	2
 615              		.globl	_Z4putcc
 617              	_Z4putcc:
 618              	.LFB11:
 111:src/syscall_c.cpp **** 
 112:src/syscall_c.cpp **** void putc(char c) {
 619              		.loc 1 112 19 is_stmt 1
 620              		.cfi_startproc
 621              	.LVL35:
 622 024c 130101FF 		addi	sp,sp,-16
 623              		.cfi_def_cfa_offset 16
 624 0250 23341100 		sd	ra,8(sp)
 625 0254 23308100 		sd	s0,0(sp)
 626              		.cfi_offset 1, -8
 627              		.cfi_offset 8, -16
 628 0258 13040101 		addi	s0,sp,16
 629              		.cfi_def_cfa 8, 0
 113:src/syscall_c.cpp ****     __putc(c);
 630              		.loc 1 113 5
 631              		.loc 1 113 11 is_stmt 0
 632 025c 97000000 		call	__putc@plt
 632      E7800000 
 633              	.LVL36:
 114:src/syscall_c.cpp **** //    __asm__ volatile("mv a1, %0" : : "r"(c));
 115:src/syscall_c.cpp **** //    __asm__ volatile("mv a0, %0" : : "r"(0x42));
 116:src/syscall_c.cpp **** //    __asm__ volatile("ecall");
 117:src/syscall_c.cpp **** }
 634              		.loc 1 117 1
 635 0264 83308100 		ld	ra,8(sp)
 636              		.cfi_restore 1
 637 0268 03340100 		ld	s0,0(sp)
 638              		.cfi_restore 8
 639              		.cfi_def_cfa 2, 16
 640 026c 13010101 		addi	sp,sp,16
 641              		.cfi_def_cfa_offset 0
 642 0270 67800000 		jr	ra
 643              		.cfi_endproc
 644              	.LFE11:
GAS LISTING /tmp/ccjK3RmS.s 			page 14


 646              	.Letext0:
 647              		.file 2 "src/../h/../lib/hw.h"
 648              		.file 3 "src/../h/syscall_c.hpp"
 649              		.file 4 "src/../lib/console.h"
GAS LISTING /tmp/ccjK3RmS.s 			page 15


DEFINED SYMBOLS
                            *ABS*:0000000000000000 syscall_c.cpp
     /tmp/ccjK3RmS.s:9      .text:0000000000000000 _Z9mem_allocm
     /tmp/ccjK3RmS.s:13     .text:0000000000000000 .L0 
     /tmp/ccjK3RmS.s:15     .text:0000000000000000 .L0 
     /tmp/ccjK3RmS.s:16     .text:0000000000000004 .L0 
     /tmp/ccjK3RmS.s:18     .text:0000000000000008 .L0 
     /tmp/ccjK3RmS.s:20     .text:000000000000000c .L0 
     /tmp/ccjK3RmS.s:22     .text:000000000000000c .L0 
     /tmp/ccjK3RmS.s:23     .text:000000000000000c .L0 
     /tmp/ccjK3RmS.s:26     .text:0000000000000010 .L0 
     /tmp/ccjK3RmS.s:27     .text:0000000000000010 .L0 
     /tmp/ccjK3RmS.s:30     .text:0000000000000014 .L0 
     /tmp/ccjK3RmS.s:32     .text:0000000000000018 .L0 
     /tmp/ccjK3RmS.s:33     .text:0000000000000018 .L0 
     /tmp/ccjK3RmS.s:37     .text:000000000000001c .L0 
     /tmp/ccjK3RmS.s:38     .text:000000000000001c .L0 
   src/syscall_c.cpp:15     .text:000000000000001c .L0 
     /tmp/ccjK3RmS.s:44     .text:0000000000000020 .L0 
     /tmp/ccjK3RmS.s:46     .text:0000000000000020 .L0 
     /tmp/ccjK3RmS.s:53     .text:0000000000000028 .L0 
   src/syscall_c.cpp:17     .text:0000000000000028 .L0 
     /tmp/ccjK3RmS.s:58     .text:000000000000002c .L0 
   src/syscall_c.cpp:18     .text:000000000000002c .L0 
     /tmp/ccjK3RmS.s:64     .text:0000000000000030 .L0 
     /tmp/ccjK3RmS.s:66     .text:0000000000000030 .L0 
     /tmp/ccjK3RmS.s:67     .text:0000000000000034 .L0 
     /tmp/ccjK3RmS.s:68     .text:0000000000000034 .L0 
     /tmp/ccjK3RmS.s:70     .text:0000000000000038 .L0 
     /tmp/ccjK3RmS.s:72     .text:000000000000003c .L0 
     /tmp/ccjK3RmS.s:78     .text:000000000000003c _Z8mem_freePv
     /tmp/ccjK3RmS.s:81     .text:000000000000003c .L0 
     /tmp/ccjK3RmS.s:83     .text:000000000000003c .L0 
     /tmp/ccjK3RmS.s:84     .text:0000000000000040 .L0 
     /tmp/ccjK3RmS.s:86     .text:0000000000000044 .L0 
     /tmp/ccjK3RmS.s:88     .text:0000000000000048 .L0 
     /tmp/ccjK3RmS.s:91     .text:0000000000000048 .L0 
     /tmp/ccjK3RmS.s:92     .text:0000000000000048 .L0 
   src/syscall_c.cpp:24     .text:0000000000000048 .L0 
     /tmp/ccjK3RmS.s:98     .text:000000000000004c .L0 
     /tmp/ccjK3RmS.s:100    .text:000000000000004c .L0 
     /tmp/ccjK3RmS.s:106    .text:0000000000000054 .L0 
   src/syscall_c.cpp:26     .text:0000000000000054 .L0 
     /tmp/ccjK3RmS.s:111    .text:0000000000000058 .L0 
   src/syscall_c.cpp:27     .text:0000000000000058 .L0 
     /tmp/ccjK3RmS.s:117    .text:000000000000005c .L0 
     /tmp/ccjK3RmS.s:119    .text:000000000000005c .L0 
     /tmp/ccjK3RmS.s:121    .text:0000000000000064 .L0 
     /tmp/ccjK3RmS.s:122    .text:0000000000000064 .L0 
     /tmp/ccjK3RmS.s:124    .text:0000000000000068 .L0 
     /tmp/ccjK3RmS.s:126    .text:000000000000006c .L0 
     /tmp/ccjK3RmS.s:132    .text:000000000000006c _Z13thread_createPP3TCBPFvPvES2_
     /tmp/ccjK3RmS.s:135    .text:000000000000006c .L0 
     /tmp/ccjK3RmS.s:137    .text:000000000000006c .L0 
     /tmp/ccjK3RmS.s:138    .text:0000000000000070 .L0 
     /tmp/ccjK3RmS.s:144    .text:0000000000000084 .L0 
     /tmp/ccjK3RmS.s:145    .text:0000000000000084 .L0 
GAS LISTING /tmp/ccjK3RmS.s 			page 16


     /tmp/ccjK3RmS.s:146    .text:0000000000000084 .L0 
     /tmp/ccjK3RmS.s:147    .text:0000000000000084 .L0 
     /tmp/ccjK3RmS.s:148    .text:0000000000000084 .L0 
     /tmp/ccjK3RmS.s:150    .text:0000000000000088 .L0 
     /tmp/ccjK3RmS.s:156    .text:0000000000000094 .L0 
     /tmp/ccjK3RmS.s:157    .text:0000000000000094 .L0 
     /tmp/ccjK3RmS.s:158    .text:0000000000000094 .L0 
     /tmp/ccjK3RmS.s:163    .text:00000000000000a0 .L0 
   src/syscall_c.cpp:34     .text:00000000000000a0 .L0 
     /tmp/ccjK3RmS.s:169    .text:00000000000000a4 .L0 
   src/syscall_c.cpp:35     .text:00000000000000a4 .L0 
     /tmp/ccjK3RmS.s:174    .text:00000000000000a8 .L0 
   src/syscall_c.cpp:36     .text:00000000000000a8 .L0 
     /tmp/ccjK3RmS.s:179    .text:00000000000000ac .L0 
   src/syscall_c.cpp:37     .text:00000000000000ac .L0 
     /tmp/ccjK3RmS.s:184    .text:00000000000000b0 .L0 
     /tmp/ccjK3RmS.s:186    .text:00000000000000b0 .L0 
     /tmp/ccjK3RmS.s:192    .text:00000000000000b8 .L0 
   src/syscall_c.cpp:39     .text:00000000000000b8 .L0 
     /tmp/ccjK3RmS.s:197    .text:00000000000000bc .L0 
   src/syscall_c.cpp:40     .text:00000000000000bc .L0 
     /tmp/ccjK3RmS.s:203    .text:00000000000000c0 .L0 
     /tmp/ccjK3RmS.s:205    .text:00000000000000c0 .L0 
     /tmp/ccjK3RmS.s:207    .text:00000000000000c8 .L0 
     /tmp/ccjK3RmS.s:209    .text:00000000000000cc .L0 
     /tmp/ccjK3RmS.s:210    .text:00000000000000cc .L0 
     /tmp/ccjK3RmS.s:212    .text:00000000000000d0 .L0 
     /tmp/ccjK3RmS.s:215    .text:00000000000000d4 .L0 
     /tmp/ccjK3RmS.s:218    .text:00000000000000d8 .L0 
     /tmp/ccjK3RmS.s:221    .text:00000000000000dc .L0 
     /tmp/ccjK3RmS.s:223    .text:00000000000000e0 .L0 
     /tmp/ccjK3RmS.s:229    .text:00000000000000e0 _Z11thread_exitv
     /tmp/ccjK3RmS.s:232    .text:00000000000000e0 .L0 
     /tmp/ccjK3RmS.s:233    .text:00000000000000e0 .L0 
     /tmp/ccjK3RmS.s:234    .text:00000000000000e4 .L0 
     /tmp/ccjK3RmS.s:236    .text:00000000000000e8 .L0 
     /tmp/ccjK3RmS.s:238    .text:00000000000000ec .L0 
     /tmp/ccjK3RmS.s:241    .text:00000000000000ec .L0 
     /tmp/ccjK3RmS.s:242    .text:00000000000000ec .L0 
     /tmp/ccjK3RmS.s:243    .text:00000000000000ec .L0 
     /tmp/ccjK3RmS.s:249    .text:00000000000000f4 .L0 
   src/syscall_c.cpp:47     .text:00000000000000f4 .L0 
     /tmp/ccjK3RmS.s:254    .text:00000000000000f8 .L0 
   src/syscall_c.cpp:48     .text:00000000000000f8 .L0 
     /tmp/ccjK3RmS.s:260    .text:00000000000000fc .L0 
     /tmp/ccjK3RmS.s:262    .text:00000000000000fc .L0 
     /tmp/ccjK3RmS.s:264    .text:0000000000000104 .L0 
     /tmp/ccjK3RmS.s:265    .text:0000000000000104 .L0 
     /tmp/ccjK3RmS.s:267    .text:0000000000000108 .L0 
     /tmp/ccjK3RmS.s:269    .text:000000000000010c .L0 
     /tmp/ccjK3RmS.s:275    .text:000000000000010c _Z15thread_dispatchv
     /tmp/ccjK3RmS.s:278    .text:000000000000010c .L0 
     /tmp/ccjK3RmS.s:279    .text:000000000000010c .L0 
     /tmp/ccjK3RmS.s:280    .text:0000000000000110 .L0 
     /tmp/ccjK3RmS.s:282    .text:0000000000000114 .L0 
     /tmp/ccjK3RmS.s:284    .text:0000000000000118 .L0 
     /tmp/ccjK3RmS.s:286    .text:0000000000000118 .L0 
GAS LISTING /tmp/ccjK3RmS.s 			page 17


     /tmp/ccjK3RmS.s:287    .text:0000000000000118 .L0 
     /tmp/ccjK3RmS.s:293    .text:0000000000000120 .L0 
   src/syscall_c.cpp:54     .text:0000000000000120 .L0 
     /tmp/ccjK3RmS.s:299    .text:0000000000000124 .L0 
     /tmp/ccjK3RmS.s:300    .text:0000000000000128 .L0 
     /tmp/ccjK3RmS.s:301    .text:0000000000000128 .L0 
     /tmp/ccjK3RmS.s:303    .text:000000000000012c .L0 
     /tmp/ccjK3RmS.s:305    .text:0000000000000130 .L0 
     /tmp/ccjK3RmS.s:311    .text:0000000000000130 _Z8sem_openPP4_semj
     /tmp/ccjK3RmS.s:314    .text:0000000000000130 .L0 
     /tmp/ccjK3RmS.s:316    .text:0000000000000130 .L0 
     /tmp/ccjK3RmS.s:317    .text:0000000000000134 .L0 
     /tmp/ccjK3RmS.s:319    .text:0000000000000138 .L0 
     /tmp/ccjK3RmS.s:321    .text:000000000000013c .L0 
     /tmp/ccjK3RmS.s:324    .text:000000000000013c .L0 
     /tmp/ccjK3RmS.s:325    .text:000000000000013c .L0 
   src/syscall_c.cpp:59     .text:000000000000013c .L0 
     /tmp/ccjK3RmS.s:331    .text:0000000000000140 .L0 
   src/syscall_c.cpp:60     .text:0000000000000140 .L0 
     /tmp/ccjK3RmS.s:336    .text:0000000000000144 .L0 
     /tmp/ccjK3RmS.s:338    .text:0000000000000144 .L0 
     /tmp/ccjK3RmS.s:344    .text:000000000000014c .L0 
   src/syscall_c.cpp:62     .text:000000000000014c .L0 
     /tmp/ccjK3RmS.s:349    .text:0000000000000150 .L0 
   src/syscall_c.cpp:63     .text:0000000000000150 .L0 
     /tmp/ccjK3RmS.s:355    .text:0000000000000154 .L0 
     /tmp/ccjK3RmS.s:357    .text:0000000000000154 .L0 
     /tmp/ccjK3RmS.s:359    .text:000000000000015c .L0 
     /tmp/ccjK3RmS.s:360    .text:000000000000015c .L0 
     /tmp/ccjK3RmS.s:362    .text:0000000000000160 .L0 
     /tmp/ccjK3RmS.s:364    .text:0000000000000164 .L0 
     /tmp/ccjK3RmS.s:370    .text:0000000000000164 _Z9sem_closeP4_sem
     /tmp/ccjK3RmS.s:373    .text:0000000000000164 .L0 
     /tmp/ccjK3RmS.s:375    .text:0000000000000164 .L0 
     /tmp/ccjK3RmS.s:376    .text:0000000000000168 .L0 
     /tmp/ccjK3RmS.s:378    .text:000000000000016c .L0 
     /tmp/ccjK3RmS.s:380    .text:0000000000000170 .L0 
     /tmp/ccjK3RmS.s:383    .text:0000000000000170 .L0 
     /tmp/ccjK3RmS.s:384    .text:0000000000000170 .L0 
   src/syscall_c.cpp:69     .text:0000000000000170 .L0 
     /tmp/ccjK3RmS.s:390    .text:0000000000000174 .L0 
     /tmp/ccjK3RmS.s:392    .text:0000000000000174 .L0 
     /tmp/ccjK3RmS.s:398    .text:000000000000017c .L0 
   src/syscall_c.cpp:71     .text:000000000000017c .L0 
     /tmp/ccjK3RmS.s:403    .text:0000000000000180 .L0 
   src/syscall_c.cpp:72     .text:0000000000000180 .L0 
     /tmp/ccjK3RmS.s:409    .text:0000000000000184 .L0 
     /tmp/ccjK3RmS.s:411    .text:0000000000000184 .L0 
     /tmp/ccjK3RmS.s:413    .text:000000000000018c .L0 
     /tmp/ccjK3RmS.s:414    .text:000000000000018c .L0 
     /tmp/ccjK3RmS.s:416    .text:0000000000000190 .L0 
     /tmp/ccjK3RmS.s:418    .text:0000000000000194 .L0 
     /tmp/ccjK3RmS.s:424    .text:0000000000000194 _Z8sem_waitP4_sem
     /tmp/ccjK3RmS.s:427    .text:0000000000000194 .L0 
     /tmp/ccjK3RmS.s:429    .text:0000000000000194 .L0 
     /tmp/ccjK3RmS.s:430    .text:0000000000000198 .L0 
     /tmp/ccjK3RmS.s:432    .text:000000000000019c .L0 
GAS LISTING /tmp/ccjK3RmS.s 			page 18


     /tmp/ccjK3RmS.s:434    .text:00000000000001a0 .L0 
     /tmp/ccjK3RmS.s:437    .text:00000000000001a0 .L0 
     /tmp/ccjK3RmS.s:438    .text:00000000000001a0 .L0 
   src/syscall_c.cpp:78     .text:00000000000001a0 .L0 
     /tmp/ccjK3RmS.s:444    .text:00000000000001a4 .L0 
     /tmp/ccjK3RmS.s:446    .text:00000000000001a4 .L0 
     /tmp/ccjK3RmS.s:452    .text:00000000000001ac .L0 
   src/syscall_c.cpp:80     .text:00000000000001ac .L0 
     /tmp/ccjK3RmS.s:457    .text:00000000000001b0 .L0 
   src/syscall_c.cpp:81     .text:00000000000001b0 .L0 
     /tmp/ccjK3RmS.s:463    .text:00000000000001b4 .L0 
     /tmp/ccjK3RmS.s:465    .text:00000000000001b4 .L0 
     /tmp/ccjK3RmS.s:467    .text:00000000000001bc .L0 
     /tmp/ccjK3RmS.s:468    .text:00000000000001bc .L0 
     /tmp/ccjK3RmS.s:470    .text:00000000000001c0 .L0 
     /tmp/ccjK3RmS.s:472    .text:00000000000001c4 .L0 
     /tmp/ccjK3RmS.s:478    .text:00000000000001c4 _Z10sem_signalP4_sem
     /tmp/ccjK3RmS.s:481    .text:00000000000001c4 .L0 
     /tmp/ccjK3RmS.s:483    .text:00000000000001c4 .L0 
     /tmp/ccjK3RmS.s:484    .text:00000000000001c8 .L0 
     /tmp/ccjK3RmS.s:486    .text:00000000000001cc .L0 
     /tmp/ccjK3RmS.s:488    .text:00000000000001d0 .L0 
     /tmp/ccjK3RmS.s:491    .text:00000000000001d0 .L0 
     /tmp/ccjK3RmS.s:492    .text:00000000000001d0 .L0 
   src/syscall_c.cpp:87     .text:00000000000001d0 .L0 
     /tmp/ccjK3RmS.s:498    .text:00000000000001d4 .L0 
     /tmp/ccjK3RmS.s:500    .text:00000000000001d4 .L0 
     /tmp/ccjK3RmS.s:506    .text:00000000000001dc .L0 
   src/syscall_c.cpp:89     .text:00000000000001dc .L0 
     /tmp/ccjK3RmS.s:511    .text:00000000000001e0 .L0 
   src/syscall_c.cpp:90     .text:00000000000001e0 .L0 
     /tmp/ccjK3RmS.s:517    .text:00000000000001e4 .L0 
     /tmp/ccjK3RmS.s:519    .text:00000000000001e4 .L0 
     /tmp/ccjK3RmS.s:521    .text:00000000000001ec .L0 
     /tmp/ccjK3RmS.s:522    .text:00000000000001ec .L0 
     /tmp/ccjK3RmS.s:524    .text:00000000000001f0 .L0 
     /tmp/ccjK3RmS.s:526    .text:00000000000001f4 .L0 
     /tmp/ccjK3RmS.s:532    .text:00000000000001f4 _Z11sem_trywaitP4_sem
     /tmp/ccjK3RmS.s:535    .text:00000000000001f4 .L0 
     /tmp/ccjK3RmS.s:537    .text:00000000000001f4 .L0 
     /tmp/ccjK3RmS.s:538    .text:00000000000001f8 .L0 
     /tmp/ccjK3RmS.s:540    .text:00000000000001fc .L0 
     /tmp/ccjK3RmS.s:542    .text:0000000000000200 .L0 
     /tmp/ccjK3RmS.s:545    .text:0000000000000200 .L0 
     /tmp/ccjK3RmS.s:546    .text:0000000000000200 .L0 
   src/syscall_c.cpp:96     .text:0000000000000200 .L0 
     /tmp/ccjK3RmS.s:552    .text:0000000000000204 .L0 
     /tmp/ccjK3RmS.s:554    .text:0000000000000204 .L0 
     /tmp/ccjK3RmS.s:560    .text:000000000000020c .L0 
   src/syscall_c.cpp:98     .text:000000000000020c .L0 
     /tmp/ccjK3RmS.s:565    .text:0000000000000210 .L0 
   src/syscall_c.cpp:99     .text:0000000000000210 .L0 
     /tmp/ccjK3RmS.s:571    .text:0000000000000214 .L0 
     /tmp/ccjK3RmS.s:573    .text:0000000000000214 .L0 
     /tmp/ccjK3RmS.s:575    .text:000000000000021c .L0 
     /tmp/ccjK3RmS.s:576    .text:000000000000021c .L0 
     /tmp/ccjK3RmS.s:578    .text:0000000000000220 .L0 
GAS LISTING /tmp/ccjK3RmS.s 			page 19


     /tmp/ccjK3RmS.s:580    .text:0000000000000224 .L0 
     /tmp/ccjK3RmS.s:586    .text:0000000000000224 _Z4getcv
     /tmp/ccjK3RmS.s:589    .text:0000000000000224 .L0 
     /tmp/ccjK3RmS.s:590    .text:0000000000000224 .L0 
     /tmp/ccjK3RmS.s:591    .text:0000000000000228 .L0 
     /tmp/ccjK3RmS.s:594    .text:0000000000000230 .L0 
     /tmp/ccjK3RmS.s:595    .text:0000000000000230 .L0 
     /tmp/ccjK3RmS.s:597    .text:0000000000000234 .L0 
     /tmp/ccjK3RmS.s:599    .text:0000000000000234 .L0 
     /tmp/ccjK3RmS.s:600    .text:0000000000000234 .L0 
     /tmp/ccjK3RmS.s:603    .text:000000000000023c .L0 
     /tmp/ccjK3RmS.s:604    .text:0000000000000240 .L0 
     /tmp/ccjK3RmS.s:606    .text:0000000000000244 .L0 
     /tmp/ccjK3RmS.s:607    .text:0000000000000244 .L0 
     /tmp/ccjK3RmS.s:609    .text:0000000000000248 .L0 
     /tmp/ccjK3RmS.s:611    .text:000000000000024c .L0 
     /tmp/ccjK3RmS.s:617    .text:000000000000024c _Z4putcc
     /tmp/ccjK3RmS.s:620    .text:000000000000024c .L0 
     /tmp/ccjK3RmS.s:622    .text:000000000000024c .L0 
     /tmp/ccjK3RmS.s:623    .text:0000000000000250 .L0 
     /tmp/ccjK3RmS.s:626    .text:0000000000000258 .L0 
     /tmp/ccjK3RmS.s:627    .text:0000000000000258 .L0 
     /tmp/ccjK3RmS.s:629    .text:000000000000025c .L0 
     /tmp/ccjK3RmS.s:631    .text:000000000000025c .L0 
     /tmp/ccjK3RmS.s:632    .text:000000000000025c .L0 
     /tmp/ccjK3RmS.s:635    .text:0000000000000264 .L0 
     /tmp/ccjK3RmS.s:636    .text:0000000000000268 .L0 
     /tmp/ccjK3RmS.s:638    .text:000000000000026c .L0 
     /tmp/ccjK3RmS.s:639    .text:000000000000026c .L0 
     /tmp/ccjK3RmS.s:641    .text:0000000000000270 .L0 
     /tmp/ccjK3RmS.s:643    .text:0000000000000274 .L0 
     /tmp/ccjK3RmS.s:650    .text:0000000000000274 .L0 
     /tmp/ccjK3RmS.s:35     .text:000000000000001c .L2
     /tmp/ccjK3RmS.s:1180   .debug_abbrev:0000000000000000 .Ldebug_abbrev0
     /tmp/ccjK3RmS.s:1934   .debug_str:0000000000000177 .LASF53
     /tmp/ccjK3RmS.s:1992   .debug_str:00000000000003a7 .LASF54
     /tmp/ccjK3RmS.s:1982   .debug_str:0000000000000368 .LASF55
     /tmp/ccjK3RmS.s:5      .text:0000000000000000 .Ltext0
     /tmp/ccjK3RmS.s:646    .text:0000000000000274 .Letext0
     /tmp/ccjK3RmS.s:1874   .debug_line:0000000000000000 .Ldebug_line0
     /tmp/ccjK3RmS.s:1940   .debug_str:0000000000000252 .LASF0
     /tmp/ccjK3RmS.s:1918   .debug_str:0000000000000113 .LASF1
     /tmp/ccjK3RmS.s:1910   .debug_str:00000000000000e4 .LASF2
     /tmp/ccjK3RmS.s:1892   .debug_str:000000000000006b .LASF4
     /tmp/ccjK3RmS.s:1916   .debug_str:0000000000000101 .LASF3
     /tmp/ccjK3RmS.s:1880   .debug_str:0000000000000021 .LASF5
     /tmp/ccjK3RmS.s:1878   .debug_str:000000000000000e .LASF6
     /tmp/ccjK3RmS.s:1904   .debug_str:00000000000000ae .LASF7
     /tmp/ccjK3RmS.s:1950   .debug_str:000000000000028a .LASF8
     /tmp/ccjK3RmS.s:1890   .debug_str:000000000000005d .LASF9
     /tmp/ccjK3RmS.s:1994   .debug_str:00000000000003b9 .LASF10
     /tmp/ccjK3RmS.s:1906   .debug_str:00000000000000c1 .LASF11
     /tmp/ccjK3RmS.s:1978   .debug_str:000000000000034c .LASF12
     /tmp/ccjK3RmS.s:1956   .debug_str:00000000000002b9 .LASF13
     /tmp/ccjK3RmS.s:1924   .debug_str:0000000000000136 .LASF14
     /tmp/ccjK3RmS.s:1900   .debug_str:0000000000000091 .LASF15
     /tmp/ccjK3RmS.s:1952   .debug_str:000000000000029a .LASF16
GAS LISTING /tmp/ccjK3RmS.s 			page 20


     /tmp/ccjK3RmS.s:1968   .debug_str:0000000000000312 .LASF17
     /tmp/ccjK3RmS.s:1954   .debug_str:00000000000002b0 .LASF18
     /tmp/ccjK3RmS.s:1886   .debug_str:0000000000000041 .LASF19
     /tmp/ccjK3RmS.s:1948   .debug_str:0000000000000285 .LASF20
     /tmp/ccjK3RmS.s:1964   .debug_str:0000000000000303 .LASF56
     /tmp/ccjK3RmS.s:1920   .debug_str:0000000000000126 .LASF57
     /tmp/ccjK3RmS.s:618    .text:000000000000024c .LFB11
     /tmp/ccjK3RmS.s:644    .text:0000000000000274 .LFE11
     /tmp/ccjK3RmS.s:1565   .debug_loc:0000000000000000 .LLST21
     /tmp/ccjK3RmS.s:633    .text:0000000000000264 .LVL36
     /tmp/ccjK3RmS.s:1944   .debug_str:000000000000026b .LASF21
     /tmp/ccjK3RmS.s:1912   .debug_str:00000000000000f2 .LASF22
     /tmp/ccjK3RmS.s:1984   .debug_str:0000000000000385 .LASF24
     /tmp/ccjK3RmS.s:587    .text:0000000000000224 .LFB10
     /tmp/ccjK3RmS.s:612    .text:000000000000024c .LFE10
     /tmp/ccjK3RmS.s:601    .text:000000000000023c .LVL34
     /tmp/ccjK3RmS.s:1990   .debug_str:000000000000039b .LASF23
     /tmp/ccjK3RmS.s:1888   .debug_str:0000000000000047 .LASF25
     /tmp/ccjK3RmS.s:533    .text:00000000000001f4 .LFB9
     /tmp/ccjK3RmS.s:581    .text:0000000000000224 .LFE9
     /tmp/ccjK3RmS.s:1579   .debug_loc:0000000000000039 .LLST19
     /tmp/ccjK3RmS.s:1902   .debug_str:00000000000000a7 .LASF26
     /tmp/ccjK3RmS.s:1593   .debug_loc:0000000000000072 .LLST20
     /tmp/ccjK3RmS.s:1930   .debug_str:000000000000015e .LASF27
     /tmp/ccjK3RmS.s:1946   .debug_str:0000000000000270 .LASF28
     /tmp/ccjK3RmS.s:479    .text:00000000000001c4 .LFB8
     /tmp/ccjK3RmS.s:527    .text:00000000000001f4 .LFE8
     /tmp/ccjK3RmS.s:1606   .debug_loc:00000000000000aa .LLST17
     /tmp/ccjK3RmS.s:1620   .debug_loc:00000000000000e3 .LLST18
     /tmp/ccjK3RmS.s:1936   .debug_str:000000000000023b .LASF29
     /tmp/ccjK3RmS.s:1884   .debug_str:000000000000002f .LASF30
     /tmp/ccjK3RmS.s:425    .text:0000000000000194 .LFB7
     /tmp/ccjK3RmS.s:473    .text:00000000000001c4 .LFE7
     /tmp/ccjK3RmS.s:1633   .debug_loc:000000000000011b .LLST15
     /tmp/ccjK3RmS.s:1647   .debug_loc:0000000000000154 .LLST16
     /tmp/ccjK3RmS.s:1914   .debug_str:00000000000000f7 .LASF31
     /tmp/ccjK3RmS.s:1894   .debug_str:0000000000000072 .LASF32
     /tmp/ccjK3RmS.s:371    .text:0000000000000164 .LFB6
     /tmp/ccjK3RmS.s:419    .text:0000000000000194 .LFE6
     /tmp/ccjK3RmS.s:1926   .debug_str:0000000000000142 .LASF33
     /tmp/ccjK3RmS.s:1660   .debug_loc:000000000000018c .LLST13
     /tmp/ccjK3RmS.s:1674   .debug_loc:00000000000001c5 .LLST14
     /tmp/ccjK3RmS.s:1970   .debug_str:000000000000031a .LASF34
     /tmp/ccjK3RmS.s:1908   .debug_str:00000000000000d0 .LASF35
     /tmp/ccjK3RmS.s:312    .text:0000000000000130 .LFB5
     /tmp/ccjK3RmS.s:365    .text:0000000000000164 .LFE5
     /tmp/ccjK3RmS.s:1687   .debug_loc:00000000000001fd .LLST11
     /tmp/ccjK3RmS.s:1898   .debug_str:000000000000008c .LASF36
     /tmp/ccjK3RmS.s:1701   .debug_loc:0000000000000236 .LLST12
     /tmp/ccjK3RmS.s:1960   .debug_str:00000000000002d2 .LASF58
     /tmp/ccjK3RmS.s:1928   .debug_str:0000000000000149 .LASF59
     /tmp/ccjK3RmS.s:276    .text:000000000000010c .LFB4
     /tmp/ccjK3RmS.s:306    .text:0000000000000130 .LFE4
     /tmp/ccjK3RmS.s:1980   .debug_str:000000000000035c .LASF37
     /tmp/ccjK3RmS.s:1974   .debug_str:0000000000000331 .LASF38
     /tmp/ccjK3RmS.s:230    .text:00000000000000e0 .LFB3
     /tmp/ccjK3RmS.s:270    .text:000000000000010c .LFE3
GAS LISTING /tmp/ccjK3RmS.s 			page 21


     /tmp/ccjK3RmS.s:1714   .debug_loc:000000000000026e .LLST10
     /tmp/ccjK3RmS.s:1972   .debug_str:0000000000000323 .LASF39
     /tmp/ccjK3RmS.s:1962   .debug_str:00000000000002e2 .LASF40
     /tmp/ccjK3RmS.s:133    .text:000000000000006c .LFB2
     /tmp/ccjK3RmS.s:224    .text:00000000000000e0 .LFE2
     /tmp/ccjK3RmS.s:1727   .debug_loc:00000000000002a6 .LLST5
     /tmp/ccjK3RmS.s:1932   .debug_str:0000000000000169 .LASF41
     /tmp/ccjK3RmS.s:1745   .debug_loc:00000000000002f2 .LLST6
     /tmp/ccjK3RmS.s:1763   .debug_loc:000000000000033e .LLST7
     /tmp/ccjK3RmS.s:1781   .debug_loc:000000000000038a .LLST8
     /tmp/ccjK3RmS.s:1942   .debug_str:000000000000025f .LASF42
     /tmp/ccjK3RmS.s:1794   .debug_loc:00000000000003c2 .LLST9
     /tmp/ccjK3RmS.s:161    .text:00000000000000a0 .LVL12
     /tmp/ccjK3RmS.s:1958   .debug_str:00000000000002c9 .LASF43
     /tmp/ccjK3RmS.s:1876   .debug_str:0000000000000000 .LASF44
     /tmp/ccjK3RmS.s:79     .text:000000000000003c .LFB1
     /tmp/ccjK3RmS.s:127    .text:000000000000006c .LFE1
     /tmp/ccjK3RmS.s:1922   .debug_str:000000000000012f .LASF45
     /tmp/ccjK3RmS.s:1801   .debug_loc:00000000000003e5 .LLST3
     /tmp/ccjK3RmS.s:1815   .debug_loc:000000000000041e .LLST4
     /tmp/ccjK3RmS.s:1976   .debug_str:0000000000000342 .LASF46
     /tmp/ccjK3RmS.s:1938   .debug_str:0000000000000244 .LASF47
     /tmp/ccjK3RmS.s:10     .text:0000000000000000 .LFB0
     /tmp/ccjK3RmS.s:73     .text:000000000000003c .LFE0
     /tmp/ccjK3RmS.s:1988   .debug_str:0000000000000396 .LASF48
     /tmp/ccjK3RmS.s:1828   .debug_loc:0000000000000456 .LLST0
     /tmp/ccjK3RmS.s:1986   .debug_str:000000000000038e .LASF49
     /tmp/ccjK3RmS.s:1842   .debug_loc:000000000000048f .LLST1
     /tmp/ccjK3RmS.s:1966   .debug_str:0000000000000308 .LASF50
     /tmp/ccjK3RmS.s:1849   .debug_loc:00000000000004b2 .LLST2
     /tmp/ccjK3RmS.s:1882   .debug_str:0000000000000028 .LASF51
     /tmp/ccjK3RmS.s:1896   .debug_str:0000000000000085 .LASF52
     /tmp/ccjK3RmS.s:621    .text:000000000000024c .LVL35
     /tmp/ccjK3RmS.s:536    .text:00000000000001f4 .LVL31
     /tmp/ccjK3RmS.s:569    .text:0000000000000214 .LVL33
     /tmp/ccjK3RmS.s:544    .text:0000000000000200 .LVL32
     /tmp/ccjK3RmS.s:482    .text:00000000000001c4 .LVL28
     /tmp/ccjK3RmS.s:515    .text:00000000000001e4 .LVL30
     /tmp/ccjK3RmS.s:490    .text:00000000000001d0 .LVL29
     /tmp/ccjK3RmS.s:428    .text:0000000000000194 .LVL25
     /tmp/ccjK3RmS.s:461    .text:00000000000001b4 .LVL27
     /tmp/ccjK3RmS.s:436    .text:00000000000001a0 .LVL26
     /tmp/ccjK3RmS.s:374    .text:0000000000000164 .LVL22
     /tmp/ccjK3RmS.s:407    .text:0000000000000184 .LVL24
     /tmp/ccjK3RmS.s:382    .text:0000000000000170 .LVL23
     /tmp/ccjK3RmS.s:315    .text:0000000000000130 .LVL19
     /tmp/ccjK3RmS.s:353    .text:0000000000000154 .LVL21
     /tmp/ccjK3RmS.s:323    .text:000000000000013c .LVL20
     /tmp/ccjK3RmS.s:240    .text:00000000000000ec .LVL17
     /tmp/ccjK3RmS.s:258    .text:00000000000000fc .LVL18
     /tmp/ccjK3RmS.s:136    .text:000000000000006c .LVL9
     /tmp/ccjK3RmS.s:159    .text:0000000000000098 .LVL11
     /tmp/ccjK3RmS.s:213    .text:00000000000000d0 .LVL14
     /tmp/ccjK3RmS.s:216    .text:00000000000000d4 .LVL15
     /tmp/ccjK3RmS.s:219    .text:00000000000000d8 .LVL16
     /tmp/ccjK3RmS.s:155    .text:0000000000000094 .LVL10
     /tmp/ccjK3RmS.s:201    .text:00000000000000c0 .LVL13
GAS LISTING /tmp/ccjK3RmS.s 			page 22


     /tmp/ccjK3RmS.s:82     .text:000000000000003c .LVL6
     /tmp/ccjK3RmS.s:115    .text:000000000000005c .LVL8
     /tmp/ccjK3RmS.s:90     .text:0000000000000048 .LVL7
     /tmp/ccjK3RmS.s:14     .text:0000000000000000 .LVL0
     /tmp/ccjK3RmS.s:28     .text:0000000000000014 .LVL2
     /tmp/ccjK3RmS.s:24     .text:0000000000000010 .LVL1
     /tmp/ccjK3RmS.s:47     .text:0000000000000024 .LVL4
     /tmp/ccjK3RmS.s:34     .text:000000000000001c .LVL3
     /tmp/ccjK3RmS.s:62     .text:0000000000000030 .LVL5
     /tmp/ccjK3RmS.s:651    .debug_info:0000000000000000 .Ldebug_info0

UNDEFINED SYMBOLS
__getc
__putc
