GAS LISTING /tmp/ccMhGaZv.s 			page 1


   1              		.file	"syscall_c.cpp"
   2              		.option pic
   3              		.option norelax
   4              		.text
   5              	.Ltext0:
   6              		.align	2
   7              		.globl	_Z9mem_allocm
   9              	_Z9mem_allocm:
  10              	.LFB0:
  11              		.file 1 "src/syscall_c.cpp"
   1:src/syscall_c.cpp **** //
   2:src/syscall_c.cpp **** // Created by os on 7/19/25.
   3:src/syscall_c.cpp **** //
   4:src/syscall_c.cpp **** 
   5:src/syscall_c.cpp **** #include "../h/syscall_c.hpp"
   6:src/syscall_c.cpp **** 
   7:src/syscall_c.cpp **** void *mem_alloc(size_t size) {
  12              		.loc 1 7 30
  13              		.cfi_startproc
  14              	.LVL0:
  15 0000 130101FF 		addi	sp,sp,-16
  16              		.cfi_def_cfa_offset 16
  17 0004 23348100 		sd	s0,8(sp)
  18              		.cfi_offset 8, -8
  19 0008 13040101 		addi	s0,sp,16
  20              		.cfi_def_cfa 8, 0
   8:src/syscall_c.cpp ****     size_t newSize = size/MEM_BLOCK_SIZE;
  21              		.loc 1 8 5
  22              		.loc 1 8 12 is_stmt 0
  23 000c 93576500 		srli	a5,a0,6
  24              	.LVL1:
   9:src/syscall_c.cpp ****     if(size%MEM_BLOCK_SIZE != 0) {
  25              		.loc 1 9 5 is_stmt 1
  26              		.loc 1 9 12 is_stmt 0
  27 0010 1375F503 		andi	a0,a0,63
  28              	.LVL2:
  29              		.loc 1 9 5
  30 0014 63040500 		beqz	a0,.L2
  10:src/syscall_c.cpp ****         newSize += 1;
  31              		.loc 1 10 9 is_stmt 1
  32              		.loc 1 10 17 is_stmt 0
  33 0018 93871700 		addi	a5,a5,1
  34              	.LVL3:
  35              	.L2:
  11:src/syscall_c.cpp ****     }
  12:src/syscall_c.cpp ****     void* returnAdr = nullptr;
  36              		.loc 1 12 5 is_stmt 1
  13:src/syscall_c.cpp ****     __asm__ volatile("mv a1, %0" : : "r"(newSize));
  37              		.loc 1 13 5
  38              		.loc 1 13 51 is_stmt 0
  39              	#APP
  40              	# 13 "src/syscall_c.cpp" 1
  14              	    __asm__ volatile("mv a0, %0" : : "r"(0x01));
  41              		mv a1, a5
  42              	# 0 "" 2
  43              		.loc 1 14 5 is_stmt 1
  44              		.loc 1 14 48 is_stmt 0
GAS LISTING /tmp/ccMhGaZv.s 			page 2


  45              	#NO_APP
  46 0020 93071000 		li	a5,1
  47              	.LVL4:
  48              	#APP
  49              	# 14 "src/syscall_c.cpp" 1
  15              	    __asm__ volatile("ecall");
  50              		mv a0, a5
  51              	# 0 "" 2
  52              		.loc 1 15 5 is_stmt 1
  53              		.loc 1 15 30 is_stmt 0
  54              	# 15 "src/syscall_c.cpp" 1
  16              	    __asm__ volatile("mv %0, a0" : "=r"(returnAdr));
  55              		ecall
  56              	# 0 "" 2
  57              		.loc 1 16 5 is_stmt 1
  58              		.loc 1 16 52 is_stmt 0
  59              	# 16 "src/syscall_c.cpp" 1
  17              	    return returnAdr;
  60              		mv a0, a0
  61              	# 0 "" 2
  62              	.LVL5:
  63              		.loc 1 17 5 is_stmt 1
  18:src/syscall_c.cpp **** }
  64              		.loc 1 18 1 is_stmt 0
  65              	#NO_APP
  66 0030 03348100 		ld	s0,8(sp)
  67              		.cfi_restore 8
  68              		.cfi_def_cfa 2, 16
  69 0034 13010101 		addi	sp,sp,16
  70              		.cfi_def_cfa_offset 0
  71 0038 67800000 		jr	ra
  72              		.cfi_endproc
  73              	.LFE0:
  75              		.align	2
  76              		.globl	_Z8mem_freePv
  78              	_Z8mem_freePv:
  79              	.LFB1:
  19:src/syscall_c.cpp **** 
  20:src/syscall_c.cpp **** int mem_free(void *adrPtr) {
  80              		.loc 1 20 28 is_stmt 1
  81              		.cfi_startproc
  82              	.LVL6:
  83 003c 130101FF 		addi	sp,sp,-16
  84              		.cfi_def_cfa_offset 16
  85 0040 23348100 		sd	s0,8(sp)
  86              		.cfi_offset 8, -8
  87 0044 13040101 		addi	s0,sp,16
  88              		.cfi_def_cfa 8, 0
  21:src/syscall_c.cpp ****     int retVal = -1;
  89              		.loc 1 21 5
  90              	.LVL7:
  22:src/syscall_c.cpp ****     __asm__ volatile("mv a1, %0" : : "r"(adrPtr));
  91              		.loc 1 22 5
  92              		.loc 1 22 50 is_stmt 0
  93              	#APP
  94              	# 22 "src/syscall_c.cpp" 1
  23              	    __asm__ volatile("mv a0, %0" : : "r"(0x02));
GAS LISTING /tmp/ccMhGaZv.s 			page 3


  95              		mv a1, a0
  96              	# 0 "" 2
  97              		.loc 1 23 5 is_stmt 1
  98              		.loc 1 23 48 is_stmt 0
  99              	#NO_APP
 100 004c 93072000 		li	a5,2
 101              	#APP
 102              	# 23 "src/syscall_c.cpp" 1
  24              	    __asm__ volatile("ecall");
 103              		mv a0, a5
 104              	# 0 "" 2
 105              		.loc 1 24 5 is_stmt 1
 106              		.loc 1 24 30 is_stmt 0
 107              	# 24 "src/syscall_c.cpp" 1
  25              	    __asm__ volatile("mv %0, a0" : "=r"(retVal));
 108              		ecall
 109              	# 0 "" 2
 110              		.loc 1 25 5 is_stmt 1
 111              		.loc 1 25 49 is_stmt 0
 112              	# 25 "src/syscall_c.cpp" 1
  26              	    return retVal;
 113              		mv a0, a0
 114              	# 0 "" 2
 115              	.LVL8:
 116              		.loc 1 26 5 is_stmt 1
  27:src/syscall_c.cpp **** }
 117              		.loc 1 27 1 is_stmt 0
 118              	#NO_APP
 119 005c 1B050500 		sext.w	a0,a0
 120 0060 03348100 		ld	s0,8(sp)
 121              		.cfi_restore 8
 122              		.cfi_def_cfa 2, 16
 123 0064 13010101 		addi	sp,sp,16
 124              		.cfi_def_cfa_offset 0
 125 0068 67800000 		jr	ra
 126              		.cfi_endproc
 127              	.LFE1:
 129              		.align	2
 130              		.globl	_Z13thread_createPP3TCBPFvPvES2_
 132              	_Z13thread_createPP3TCBPFvPvES2_:
 133              	.LFB2:
  28:src/syscall_c.cpp **** 
  29:src/syscall_c.cpp **** int thread_create(thread_t *handle, void (*start_routine)(void *), void *arg) {
 134              		.loc 1 29 79 is_stmt 1
 135              		.cfi_startproc
 136              	.LVL9:
 137 006c 130101FF 		addi	sp,sp,-16
 138              		.cfi_def_cfa_offset 16
 139 0070 23348100 		sd	s0,8(sp)
 140              		.cfi_offset 8, -8
 141 0074 13040101 		addi	s0,sp,16
 142              		.cfi_def_cfa 8, 0
  30:src/syscall_c.cpp ****     int retVal = -1;
 143              		.loc 1 30 5
 144              	.LVL10:
  31:src/syscall_c.cpp ****     __asm__ volatile("mv a3, %0" : : "r"(arg));
 145              		.loc 1 31 5
GAS LISTING /tmp/ccMhGaZv.s 			page 4


 146              		.loc 1 31 47 is_stmt 0
 147              	#APP
 148              	# 31 "src/syscall_c.cpp" 1
  32              	    __asm__ volatile("mv a2, %0" : : "r"(start_routine));
 149              		mv a3, a2
 150              	# 0 "" 2
 151              		.loc 1 32 5 is_stmt 1
 152              		.loc 1 32 57 is_stmt 0
 153              	# 32 "src/syscall_c.cpp" 1
  33              	    __asm__ volatile("mv a1, %0" : : "r"(handle));
 154              		mv a2, a1
 155              	# 0 "" 2
 156              		.loc 1 33 5 is_stmt 1
 157              		.loc 1 33 50 is_stmt 0
 158              	# 33 "src/syscall_c.cpp" 1
  34              	    __asm__ volatile("mv a0, %0" : : "r"(0x11));
 159              		mv a1, a0
 160              	# 0 "" 2
 161              		.loc 1 34 5 is_stmt 1
 162              		.loc 1 34 48 is_stmt 0
 163              	#NO_APP
 164 0084 93071001 		li	a5,17
 165              	#APP
 166              	# 34 "src/syscall_c.cpp" 1
  35              	    __asm__ volatile("ecall");
 167              		mv a0, a5
 168              	# 0 "" 2
 169              		.loc 1 35 5 is_stmt 1
 170              		.loc 1 35 30 is_stmt 0
 171              	# 35 "src/syscall_c.cpp" 1
  36              	    __asm__ volatile("mv %0, a0" : "=r"(retVal));
 172              		ecall
 173              	# 0 "" 2
 174              		.loc 1 36 5 is_stmt 1
 175              		.loc 1 36 49 is_stmt 0
 176              	# 36 "src/syscall_c.cpp" 1
  37              	    return retVal;
 177              		mv a0, a0
 178              	# 0 "" 2
 179              	.LVL11:
 180              		.loc 1 37 5 is_stmt 1
  38:src/syscall_c.cpp **** }
 181              		.loc 1 38 1 is_stmt 0
 182              	#NO_APP
 183 0094 1B050500 		sext.w	a0,a0
 184 0098 03348100 		ld	s0,8(sp)
 185              		.cfi_restore 8
 186              		.cfi_def_cfa 2, 16
 187 009c 13010101 		addi	sp,sp,16
 188              		.cfi_def_cfa_offset 0
 189 00a0 67800000 		jr	ra
 190              		.cfi_endproc
 191              	.LFE2:
 193              		.align	2
 194              		.globl	_Z11thread_exitv
 196              	_Z11thread_exitv:
 197              	.LFB3:
GAS LISTING /tmp/ccMhGaZv.s 			page 5


  39:src/syscall_c.cpp **** 
  40:src/syscall_c.cpp **** int thread_exit() {
 198              		.loc 1 40 19 is_stmt 1
 199              		.cfi_startproc
 200 00a4 130101FF 		addi	sp,sp,-16
 201              		.cfi_def_cfa_offset 16
 202 00a8 23348100 		sd	s0,8(sp)
 203              		.cfi_offset 8, -8
 204 00ac 13040101 		addi	s0,sp,16
 205              		.cfi_def_cfa 8, 0
  41:src/syscall_c.cpp ****     int retVal = -1;
 206              		.loc 1 41 5
 207              	.LVL12:
  42:src/syscall_c.cpp ****     __asm__ volatile("mv a0, %0" : : "r"(0x12));
 208              		.loc 1 42 5
 209              		.loc 1 42 48 is_stmt 0
 210 00b0 93072001 		li	a5,18
 211              	#APP
 212              	# 42 "src/syscall_c.cpp" 1
  43              	    __asm__ volatile("ecall");
 213              		mv a0, a5
 214              	# 0 "" 2
 215              		.loc 1 43 5 is_stmt 1
 216              		.loc 1 43 30 is_stmt 0
 217              	# 43 "src/syscall_c.cpp" 1
  44              	    __asm__ volatile("mv %0, a0" : "=r"(retVal));
 218              		ecall
 219              	# 0 "" 2
 220              		.loc 1 44 5 is_stmt 1
 221              		.loc 1 44 49 is_stmt 0
 222              	# 44 "src/syscall_c.cpp" 1
  45              	    return retVal;
 223              		mv a0, a0
 224              	# 0 "" 2
 225              	.LVL13:
 226              		.loc 1 45 5 is_stmt 1
  46:src/syscall_c.cpp **** }
 227              		.loc 1 46 1 is_stmt 0
 228              	#NO_APP
 229 00c0 1B050500 		sext.w	a0,a0
 230 00c4 03348100 		ld	s0,8(sp)
 231              		.cfi_restore 8
 232              		.cfi_def_cfa 2, 16
 233 00c8 13010101 		addi	sp,sp,16
 234              		.cfi_def_cfa_offset 0
 235 00cc 67800000 		jr	ra
 236              		.cfi_endproc
 237              	.LFE3:
 239              		.align	2
 240              		.globl	_Z15thread_dispatchv
 242              	_Z15thread_dispatchv:
 243              	.LFB4:
  47:src/syscall_c.cpp **** 
  48:src/syscall_c.cpp **** void thread_dispatch() {
 244              		.loc 1 48 24 is_stmt 1
 245              		.cfi_startproc
 246 00d0 130101FF 		addi	sp,sp,-16
GAS LISTING /tmp/ccMhGaZv.s 			page 6


 247              		.cfi_def_cfa_offset 16
 248 00d4 23348100 		sd	s0,8(sp)
 249              		.cfi_offset 8, -8
 250 00d8 13040101 		addi	s0,sp,16
 251              		.cfi_def_cfa 8, 0
  49:src/syscall_c.cpp ****     __asm__ volatile("mv a0, %0" : : "r"(0x13));
 252              		.loc 1 49 5
 253              		.loc 1 49 48 is_stmt 0
 254 00dc 93073001 		li	a5,19
 255              	#APP
 256              	# 49 "src/syscall_c.cpp" 1
  50              	    __asm__ volatile("ecall");
 257              		mv a0, a5
 258              	# 0 "" 2
 259              		.loc 1 50 5 is_stmt 1
 260              		.loc 1 50 30 is_stmt 0
 261              	# 50 "src/syscall_c.cpp" 1
  51              	}
 262              		ecall
 263              	# 0 "" 2
 264              		.loc 1 51 1
 265              	#NO_APP
 266 00e8 03348100 		ld	s0,8(sp)
 267              		.cfi_restore 8
 268              		.cfi_def_cfa 2, 16
 269 00ec 13010101 		addi	sp,sp,16
 270              		.cfi_def_cfa_offset 0
 271 00f0 67800000 		jr	ra
 272              		.cfi_endproc
 273              	.LFE4:
 275              		.align	2
 276              		.globl	_Z8sem_openPP4_semj
 278              	_Z8sem_openPP4_semj:
 279              	.LFB5:
  52:src/syscall_c.cpp **** 
  53:src/syscall_c.cpp **** int sem_open(sem_t *handle, unsigned int init) {
 280              		.loc 1 53 48 is_stmt 1
 281              		.cfi_startproc
 282              	.LVL14:
 283 00f4 130101FF 		addi	sp,sp,-16
 284              		.cfi_def_cfa_offset 16
 285 00f8 23348100 		sd	s0,8(sp)
 286              		.cfi_offset 8, -8
 287 00fc 13040101 		addi	s0,sp,16
 288              		.cfi_def_cfa 8, 0
  54:src/syscall_c.cpp ****     int retVal = -1;
 289              		.loc 1 54 5
 290              	.LVL15:
  55:src/syscall_c.cpp ****     __asm__ volatile("mv a2, %0" : : "r"(init));
 291              		.loc 1 55 5
 292              		.loc 1 55 48 is_stmt 0
 293              	#APP
 294              	# 55 "src/syscall_c.cpp" 1
  56              	    __asm__ volatile("mv a1, %0" : : "r"(handle));
 295              		mv a2, a1
 296              	# 0 "" 2
 297              		.loc 1 56 5 is_stmt 1
GAS LISTING /tmp/ccMhGaZv.s 			page 7


 298              		.loc 1 56 50 is_stmt 0
 299              	# 56 "src/syscall_c.cpp" 1
  57              	    __asm__ volatile("mv a0, %0" : : "r"(0x21));
 300              		mv a1, a0
 301              	# 0 "" 2
 302              		.loc 1 57 5 is_stmt 1
 303              		.loc 1 57 48 is_stmt 0
 304              	#NO_APP
 305 0108 93071002 		li	a5,33
 306              	#APP
 307              	# 57 "src/syscall_c.cpp" 1
  58              	    __asm__ volatile("ecall");
 308              		mv a0, a5
 309              	# 0 "" 2
 310              		.loc 1 58 5 is_stmt 1
 311              		.loc 1 58 30 is_stmt 0
 312              	# 58 "src/syscall_c.cpp" 1
  59              	    __asm__ volatile("mv %0, a0" : "=r"(retVal));
 313              		ecall
 314              	# 0 "" 2
 315              		.loc 1 59 5 is_stmt 1
 316              		.loc 1 59 49 is_stmt 0
 317              	# 59 "src/syscall_c.cpp" 1
  60              	    return retVal;
 318              		mv a0, a0
 319              	# 0 "" 2
 320              	.LVL16:
 321              		.loc 1 60 5 is_stmt 1
  61:src/syscall_c.cpp **** }
 322              		.loc 1 61 1 is_stmt 0
 323              	#NO_APP
 324 0118 1B050500 		sext.w	a0,a0
 325 011c 03348100 		ld	s0,8(sp)
 326              		.cfi_restore 8
 327              		.cfi_def_cfa 2, 16
 328 0120 13010101 		addi	sp,sp,16
 329              		.cfi_def_cfa_offset 0
 330 0124 67800000 		jr	ra
 331              		.cfi_endproc
 332              	.LFE5:
 334              		.align	2
 335              		.globl	_Z9sem_closeP4_sem
 337              	_Z9sem_closeP4_sem:
 338              	.LFB6:
  62:src/syscall_c.cpp **** 
  63:src/syscall_c.cpp **** int sem_close(sem_t handle) {
 339              		.loc 1 63 29 is_stmt 1
 340              		.cfi_startproc
 341              	.LVL17:
 342 0128 130101FF 		addi	sp,sp,-16
 343              		.cfi_def_cfa_offset 16
 344 012c 23348100 		sd	s0,8(sp)
 345              		.cfi_offset 8, -8
 346 0130 13040101 		addi	s0,sp,16
 347              		.cfi_def_cfa 8, 0
  64:src/syscall_c.cpp ****     int retVal = -1;
 348              		.loc 1 64 5
GAS LISTING /tmp/ccMhGaZv.s 			page 8


 349              	.LVL18:
  65:src/syscall_c.cpp ****     __asm__ volatile("mv a1, %0" : : "r"(handle));
 350              		.loc 1 65 5
 351              		.loc 1 65 50 is_stmt 0
 352              	#APP
 353              	# 65 "src/syscall_c.cpp" 1
  66              	    __asm__ volatile("mv a0, %0" : : "r"(0x22));
 354              		mv a1, a0
 355              	# 0 "" 2
 356              		.loc 1 66 5 is_stmt 1
 357              		.loc 1 66 48 is_stmt 0
 358              	#NO_APP
 359 0138 93072002 		li	a5,34
 360              	#APP
 361              	# 66 "src/syscall_c.cpp" 1
  67              	    __asm__ volatile("ecall");
 362              		mv a0, a5
 363              	# 0 "" 2
 364              		.loc 1 67 5 is_stmt 1
 365              		.loc 1 67 30 is_stmt 0
 366              	# 67 "src/syscall_c.cpp" 1
  68              	    __asm__ volatile("mv %0, a0" : "=r"(retVal));
 367              		ecall
 368              	# 0 "" 2
 369              		.loc 1 68 5 is_stmt 1
 370              		.loc 1 68 49 is_stmt 0
 371              	# 68 "src/syscall_c.cpp" 1
  69              	    return retVal;
 372              		mv a0, a0
 373              	# 0 "" 2
 374              	.LVL19:
 375              		.loc 1 69 5 is_stmt 1
  70:src/syscall_c.cpp **** }
 376              		.loc 1 70 1 is_stmt 0
 377              	#NO_APP
 378 0148 1B050500 		sext.w	a0,a0
 379 014c 03348100 		ld	s0,8(sp)
 380              		.cfi_restore 8
 381              		.cfi_def_cfa 2, 16
 382 0150 13010101 		addi	sp,sp,16
 383              		.cfi_def_cfa_offset 0
 384 0154 67800000 		jr	ra
 385              		.cfi_endproc
 386              	.LFE6:
 388              		.align	2
 389              		.globl	_Z8sem_waitP4_sem
 391              	_Z8sem_waitP4_sem:
 392              	.LFB7:
  71:src/syscall_c.cpp **** 
  72:src/syscall_c.cpp **** int sem_wait(sem_t id) {
 393              		.loc 1 72 24 is_stmt 1
 394              		.cfi_startproc
 395              	.LVL20:
 396 0158 130101FF 		addi	sp,sp,-16
 397              		.cfi_def_cfa_offset 16
 398 015c 23348100 		sd	s0,8(sp)
 399              		.cfi_offset 8, -8
GAS LISTING /tmp/ccMhGaZv.s 			page 9


 400 0160 13040101 		addi	s0,sp,16
 401              		.cfi_def_cfa 8, 0
  73:src/syscall_c.cpp ****     int retVal = -1;
 402              		.loc 1 73 5
 403              	.LVL21:
  74:src/syscall_c.cpp ****     __asm__ volatile("mv a1, %0" : : "r"(id));
 404              		.loc 1 74 5
 405              		.loc 1 74 46 is_stmt 0
 406              	#APP
 407              	# 74 "src/syscall_c.cpp" 1
  75              	    __asm__ volatile("mv a0, %0" : : "r"(0x23));
 408              		mv a1, a0
 409              	# 0 "" 2
 410              		.loc 1 75 5 is_stmt 1
 411              		.loc 1 75 48 is_stmt 0
 412              	#NO_APP
 413 0168 93073002 		li	a5,35
 414              	#APP
 415              	# 75 "src/syscall_c.cpp" 1
  76              	    __asm__ volatile("ecall");
 416              		mv a0, a5
 417              	# 0 "" 2
 418              		.loc 1 76 5 is_stmt 1
 419              		.loc 1 76 30 is_stmt 0
 420              	# 76 "src/syscall_c.cpp" 1
  77              	    __asm__ volatile("mv %0, a0" : "=r"(retVal));
 421              		ecall
 422              	# 0 "" 2
 423              		.loc 1 77 5 is_stmt 1
 424              		.loc 1 77 49 is_stmt 0
 425              	# 77 "src/syscall_c.cpp" 1
  78              	    return retVal;
 426              		mv a0, a0
 427              	# 0 "" 2
 428              	.LVL22:
 429              		.loc 1 78 5 is_stmt 1
  79:src/syscall_c.cpp **** }
 430              		.loc 1 79 1 is_stmt 0
 431              	#NO_APP
 432 0178 1B050500 		sext.w	a0,a0
 433 017c 03348100 		ld	s0,8(sp)
 434              		.cfi_restore 8
 435              		.cfi_def_cfa 2, 16
 436 0180 13010101 		addi	sp,sp,16
 437              		.cfi_def_cfa_offset 0
 438 0184 67800000 		jr	ra
 439              		.cfi_endproc
 440              	.LFE7:
 442              		.align	2
 443              		.globl	_Z10sem_signalP4_sem
 445              	_Z10sem_signalP4_sem:
 446              	.LFB8:
  80:src/syscall_c.cpp **** 
  81:src/syscall_c.cpp **** int sem_signal(sem_t id) {
 447              		.loc 1 81 26 is_stmt 1
 448              		.cfi_startproc
 449              	.LVL23:
GAS LISTING /tmp/ccMhGaZv.s 			page 10


 450 0188 130101FF 		addi	sp,sp,-16
 451              		.cfi_def_cfa_offset 16
 452 018c 23348100 		sd	s0,8(sp)
 453              		.cfi_offset 8, -8
 454 0190 13040101 		addi	s0,sp,16
 455              		.cfi_def_cfa 8, 0
  82:src/syscall_c.cpp ****     int retVal = -1;
 456              		.loc 1 82 5
 457              	.LVL24:
  83:src/syscall_c.cpp ****     __asm__ volatile("mv a1, %0" : : "r"(id));
 458              		.loc 1 83 5
 459              		.loc 1 83 46 is_stmt 0
 460              	#APP
 461              	# 83 "src/syscall_c.cpp" 1
  84              	    __asm__ volatile("mv a0, %0" : : "r"(0x24));
 462              		mv a1, a0
 463              	# 0 "" 2
 464              		.loc 1 84 5 is_stmt 1
 465              		.loc 1 84 48 is_stmt 0
 466              	#NO_APP
 467 0198 93074002 		li	a5,36
 468              	#APP
 469              	# 84 "src/syscall_c.cpp" 1
  85              	    __asm__ volatile("ecall");
 470              		mv a0, a5
 471              	# 0 "" 2
 472              		.loc 1 85 5 is_stmt 1
 473              		.loc 1 85 30 is_stmt 0
 474              	# 85 "src/syscall_c.cpp" 1
  86              	    __asm__ volatile("mv %0, a0" : "=r"(retVal));
 475              		ecall
 476              	# 0 "" 2
 477              		.loc 1 86 5 is_stmt 1
 478              		.loc 1 86 49 is_stmt 0
 479              	# 86 "src/syscall_c.cpp" 1
  87              	    return retVal;
 480              		mv a0, a0
 481              	# 0 "" 2
 482              	.LVL25:
 483              		.loc 1 87 5 is_stmt 1
  88:src/syscall_c.cpp **** }
 484              		.loc 1 88 1 is_stmt 0
 485              	#NO_APP
 486 01a8 1B050500 		sext.w	a0,a0
 487 01ac 03348100 		ld	s0,8(sp)
 488              		.cfi_restore 8
 489              		.cfi_def_cfa 2, 16
 490 01b0 13010101 		addi	sp,sp,16
 491              		.cfi_def_cfa_offset 0
 492 01b4 67800000 		jr	ra
 493              		.cfi_endproc
 494              	.LFE8:
 496              		.align	2
 497              		.globl	_Z11sem_trywaitP4_sem
 499              	_Z11sem_trywaitP4_sem:
 500              	.LFB9:
  89:src/syscall_c.cpp **** 
GAS LISTING /tmp/ccMhGaZv.s 			page 11


  90:src/syscall_c.cpp **** int sem_trywait(sem_t id) {
 501              		.loc 1 90 27 is_stmt 1
 502              		.cfi_startproc
 503              	.LVL26:
 504 01b8 130101FF 		addi	sp,sp,-16
 505              		.cfi_def_cfa_offset 16
 506 01bc 23348100 		sd	s0,8(sp)
 507              		.cfi_offset 8, -8
 508 01c0 13040101 		addi	s0,sp,16
 509              		.cfi_def_cfa 8, 0
  91:src/syscall_c.cpp ****     int retVal = -1;
 510              		.loc 1 91 5
 511              	.LVL27:
  92:src/syscall_c.cpp ****     __asm__ volatile("mv a1, %0" : : "r"(id));
 512              		.loc 1 92 5
 513              		.loc 1 92 46 is_stmt 0
 514              	#APP
 515              	# 92 "src/syscall_c.cpp" 1
  93              	    __asm__ volatile("mv a0, %0" : : "r"(0x26));
 516              		mv a1, a0
 517              	# 0 "" 2
 518              		.loc 1 93 5 is_stmt 1
 519              		.loc 1 93 48 is_stmt 0
 520              	#NO_APP
 521 01c8 93076002 		li	a5,38
 522              	#APP
 523              	# 93 "src/syscall_c.cpp" 1
  94              	    __asm__ volatile("ecall");
 524              		mv a0, a5
 525              	# 0 "" 2
 526              		.loc 1 94 5 is_stmt 1
 527              		.loc 1 94 30 is_stmt 0
 528              	# 94 "src/syscall_c.cpp" 1
  95              	    __asm__ volatile("mv %0, a0" : "=r"(retVal));
 529              		ecall
 530              	# 0 "" 2
 531              		.loc 1 95 5 is_stmt 1
 532              		.loc 1 95 49 is_stmt 0
 533              	# 95 "src/syscall_c.cpp" 1
  96              	    return retVal;
 534              		mv a0, a0
 535              	# 0 "" 2
 536              	.LVL28:
 537              		.loc 1 96 5 is_stmt 1
  97:src/syscall_c.cpp **** }
 538              		.loc 1 97 1 is_stmt 0
 539              	#NO_APP
 540 01d8 1B050500 		sext.w	a0,a0
 541 01dc 03348100 		ld	s0,8(sp)
 542              		.cfi_restore 8
 543              		.cfi_def_cfa 2, 16
 544 01e0 13010101 		addi	sp,sp,16
 545              		.cfi_def_cfa_offset 0
 546 01e4 67800000 		jr	ra
 547              		.cfi_endproc
 548              	.LFE9:
 550              		.align	2
GAS LISTING /tmp/ccMhGaZv.s 			page 12


 551              		.globl	_Z4getcv
 553              	_Z4getcv:
 554              	.LFB10:
  98:src/syscall_c.cpp **** 
  99:src/syscall_c.cpp **** char getc() {
 555              		.loc 1 99 13 is_stmt 1
 556              		.cfi_startproc
 557 01e8 130101FF 		addi	sp,sp,-16
 558              		.cfi_def_cfa_offset 16
 559 01ec 23348100 		sd	s0,8(sp)
 560              		.cfi_offset 8, -8
 561 01f0 13040101 		addi	s0,sp,16
 562              		.cfi_def_cfa 8, 0
 100:src/syscall_c.cpp ****     char c;
 563              		.loc 1 100 5
 101:src/syscall_c.cpp ****     __asm__ volatile("mv a0, %0" : : "r"(0x41));
 564              		.loc 1 101 5
 565              		.loc 1 101 48 is_stmt 0
 566 01f4 93071004 		li	a5,65
 567              	#APP
 568              	# 101 "src/syscall_c.cpp" 1
 102              	    __asm__ volatile("ecall");
 569              		mv a0, a5
 570              	# 0 "" 2
 571              		.loc 1 102 5 is_stmt 1
 572              		.loc 1 102 30 is_stmt 0
 573              	# 102 "src/syscall_c.cpp" 1
 103              	    __asm__ volatile("mv %0, a0" : "=r"(c));
 574              		ecall
 575              	# 0 "" 2
 576              		.loc 1 103 5 is_stmt 1
 577              		.loc 1 103 44 is_stmt 0
 578              	# 103 "src/syscall_c.cpp" 1
 104              	    return c;
 579              		mv a0, a0
 580              	# 0 "" 2
 581              	.LVL29:
 582              		.loc 1 104 5 is_stmt 1
 105:src/syscall_c.cpp **** }
 583              		.loc 1 105 1 is_stmt 0
 584              	#NO_APP
 585 0204 1375F50F 		andi	a0,a0,0xff
 586 0208 03348100 		ld	s0,8(sp)
 587              		.cfi_restore 8
 588              		.cfi_def_cfa 2, 16
 589 020c 13010101 		addi	sp,sp,16
 590              		.cfi_def_cfa_offset 0
 591 0210 67800000 		jr	ra
 592              		.cfi_endproc
 593              	.LFE10:
 595              		.align	2
 596              		.globl	_Z4putcc
 598              	_Z4putcc:
 599              	.LFB11:
 106:src/syscall_c.cpp **** 
 107:src/syscall_c.cpp **** void putc(char c) {
 600              		.loc 1 107 19 is_stmt 1
GAS LISTING /tmp/ccMhGaZv.s 			page 13


 601              		.cfi_startproc
 602              	.LVL30:
 603 0214 130101FF 		addi	sp,sp,-16
 604              		.cfi_def_cfa_offset 16
 605 0218 23348100 		sd	s0,8(sp)
 606              		.cfi_offset 8, -8
 607 021c 13040101 		addi	s0,sp,16
 608              		.cfi_def_cfa 8, 0
 108:src/syscall_c.cpp ****     __asm__ volatile("mv a1, %0" : : "r"(c));
 609              		.loc 1 108 5
 610              		.loc 1 108 45 is_stmt 0
 611              	#APP
 612              	# 108 "src/syscall_c.cpp" 1
 109              	    __asm__ volatile("mv a0, %0" : : "r"(0x42));
 613              		mv a1, a0
 614              	# 0 "" 2
 615              		.loc 1 109 5 is_stmt 1
 616              		.loc 1 109 48 is_stmt 0
 617              	#NO_APP
 618 0224 93072004 		li	a5,66
 619              	#APP
 620              	# 109 "src/syscall_c.cpp" 1
 110              	    __asm__ volatile("ecall");
 621              		mv a0, a5
 622              	# 0 "" 2
 623              		.loc 1 110 5 is_stmt 1
 624              		.loc 1 110 30 is_stmt 0
 625              	# 110 "src/syscall_c.cpp" 1
 111              	}
 626              		ecall
 627              	# 0 "" 2
 628              		.loc 1 111 1
 629              	#NO_APP
 630 0230 03348100 		ld	s0,8(sp)
 631              		.cfi_restore 8
 632              		.cfi_def_cfa 2, 16
 633 0234 13010101 		addi	sp,sp,16
 634              		.cfi_def_cfa_offset 0
 635 0238 67800000 		jr	ra
 636              		.cfi_endproc
 637              	.LFE11:
 639              	.Letext0:
 640              		.file 2 "src/../h/../lib/hw.h"
 641              		.file 3 "src/../h/syscall_c.hpp"
GAS LISTING /tmp/ccMhGaZv.s 			page 14

