GAS LISTING /tmp/cchlcByh.s 			page 1


   1              		.file	"syscall_cpp.cpp"
   2              		.option pic
   3              		.option norelax
   4              		.text
   5              	.Ltext0:
   6              		.section	.text._ZN6Thread3runEv,"axG",@progbits,_ZN6Thread3runEv,comdat
   7              		.align	2
   8              		.weak	_ZN6Thread3runEv
  10              	_ZN6Thread3runEv:
  11              	.LFB0:
  12              		.file 1 "src/../h/syscall_cpp.hpp"
   1:src/../h/syscall_cpp.hpp **** //
   2:src/../h/syscall_cpp.hpp **** // Created by os on 8/10/25.
   3:src/../h/syscall_cpp.hpp **** //
   4:src/../h/syscall_cpp.hpp **** 
   5:src/../h/syscall_cpp.hpp **** #ifndef OSPROJECT_SYSCALL_CPP_HPP
   6:src/../h/syscall_cpp.hpp **** #define OSPROJECT_SYSCALL_CPP_HPP
   7:src/../h/syscall_cpp.hpp **** 
   8:src/../h/syscall_cpp.hpp **** 
   9:src/../h/syscall_cpp.hpp **** #include "syscall_c.hpp"
  10:src/../h/syscall_cpp.hpp **** 
  11:src/../h/syscall_cpp.hpp **** 
  12:src/../h/syscall_cpp.hpp **** void* operator new (size_t n);
  13:src/../h/syscall_cpp.hpp **** void* operator new[](size_t n);
  14:src/../h/syscall_cpp.hpp **** void  operator delete (void* p) noexcept;
  15:src/../h/syscall_cpp.hpp **** void operator delete[](void* p) noexcept;
  16:src/../h/syscall_cpp.hpp **** 
  17:src/../h/syscall_cpp.hpp **** 
  18:src/../h/syscall_cpp.hpp **** class Thread {
  19:src/../h/syscall_cpp.hpp **** public:
  20:src/../h/syscall_cpp.hpp ****     Thread (void (*body)(void*), void* arg);
  21:src/../h/syscall_cpp.hpp ****     virtual ~Thread ();
  22:src/../h/syscall_cpp.hpp ****     int start ();
  23:src/../h/syscall_cpp.hpp ****     static void dispatch ();
  24:src/../h/syscall_cpp.hpp **** 
  25:src/../h/syscall_cpp.hpp **** protected:
  26:src/../h/syscall_cpp.hpp ****     Thread ();
  27:src/../h/syscall_cpp.hpp ****     virtual void run () {}
  13              		.loc 1 27 18
  14              		.cfi_startproc
  15              	.LVL0:
  16 0000 130101FF 		addi	sp,sp,-16
  17              		.cfi_def_cfa_offset 16
  18 0004 23348100 		sd	s0,8(sp)
  19              		.cfi_offset 8, -8
  20 0008 13040101 		addi	s0,sp,16
  21              		.cfi_def_cfa 8, 0
  22              		.loc 1 27 26 is_stmt 0
  23 000c 03348100 		ld	s0,8(sp)
  24              		.cfi_restore 8
  25              		.cfi_def_cfa 2, 16
  26 0010 13010101 		addi	sp,sp,16
  27              		.cfi_def_cfa_offset 0
  28 0014 67800000 		jr	ra
  29              		.cfi_endproc
  30              	.LFE0:
  32              		.text
GAS LISTING /tmp/cchlcByh.s 			page 2


  33              		.align	2
  34              		.globl	_ZN6ThreadD2Ev
  36              	_ZN6ThreadD2Ev:
  37              	.LFB9:
  38              		.file 2 "src/syscall_cpp.cpp"
   1:src/syscall_cpp.cpp **** //
   2:src/syscall_cpp.cpp **** // Created by os on 8/10/25.
   3:src/syscall_cpp.cpp **** //
   4:src/syscall_cpp.cpp **** 
   5:src/syscall_cpp.cpp **** #include "../h/syscall_cpp.hpp"
   6:src/syscall_cpp.cpp **** 
   7:src/syscall_cpp.cpp **** void* operator new (size_t n) {
   8:src/syscall_cpp.cpp ****     return mem_alloc(n);
   9:src/syscall_cpp.cpp **** }
  10:src/syscall_cpp.cpp **** 
  11:src/syscall_cpp.cpp **** 
  12:src/syscall_cpp.cpp **** void* operator new[](size_t n) {
  13:src/syscall_cpp.cpp ****     return mem_alloc(n);
  14:src/syscall_cpp.cpp **** }
  15:src/syscall_cpp.cpp **** 
  16:src/syscall_cpp.cpp **** 
  17:src/syscall_cpp.cpp **** void  operator delete (void* p) noexcept {
  18:src/syscall_cpp.cpp ****     mem_free(p);
  19:src/syscall_cpp.cpp **** }
  20:src/syscall_cpp.cpp **** 
  21:src/syscall_cpp.cpp **** 
  22:src/syscall_cpp.cpp **** void operator delete[](void *p) noexcept {
  23:src/syscall_cpp.cpp ****     mem_free(p);
  24:src/syscall_cpp.cpp **** }
  25:src/syscall_cpp.cpp **** 
  26:src/syscall_cpp.cpp **** 
  27:src/syscall_cpp.cpp **** Thread::Thread(void (*body)(void *), void *arg) {
  28:src/syscall_cpp.cpp **** 
  29:src/syscall_cpp.cpp **** }
  30:src/syscall_cpp.cpp **** 
  31:src/syscall_cpp.cpp **** Thread::~Thread() {
  39              		.loc 2 31 1 is_stmt 1
  40              		.cfi_startproc
  41              	.LVL1:
  42 0000 130101FF 		addi	sp,sp,-16
  43              		.cfi_def_cfa_offset 16
  44 0004 23348100 		sd	s0,8(sp)
  45              		.cfi_offset 8, -8
  46 0008 13040101 		addi	s0,sp,16
  47              		.cfi_def_cfa 8, 0
  32:src/syscall_cpp.cpp **** 
  33:src/syscall_cpp.cpp **** }
  48              		.loc 2 33 1 is_stmt 0
  49 000c 03348100 		ld	s0,8(sp)
  50              		.cfi_restore 8
  51              		.cfi_def_cfa 2, 16
  52 0010 13010101 		addi	sp,sp,16
  53              		.cfi_def_cfa_offset 0
  54 0014 67800000 		jr	ra
  55              		.cfi_endproc
  56              	.LFE9:
  58              		.globl	_ZN6ThreadD1Ev
GAS LISTING /tmp/cchlcByh.s 			page 3


  59              		.set	_ZN6ThreadD1Ev,_ZN6ThreadD2Ev
  60              		.align	2
  61              		.globl	_ZN9SemaphoreD2Ev
  63              	_ZN9SemaphoreD2Ev:
  64              	.LFB21:
  34:src/syscall_cpp.cpp **** 
  35:src/syscall_cpp.cpp **** int Thread::start() {
  36:src/syscall_cpp.cpp ****     return 0;
  37:src/syscall_cpp.cpp **** }
  38:src/syscall_cpp.cpp **** 
  39:src/syscall_cpp.cpp **** void Thread::dispatch() {
  40:src/syscall_cpp.cpp **** 
  41:src/syscall_cpp.cpp **** }
  42:src/syscall_cpp.cpp **** 
  43:src/syscall_cpp.cpp **** Thread::Thread() {
  44:src/syscall_cpp.cpp **** 
  45:src/syscall_cpp.cpp **** }
  46:src/syscall_cpp.cpp **** 
  47:src/syscall_cpp.cpp **** 
  48:src/syscall_cpp.cpp **** Semaphore::Semaphore(unsigned int init) {
  49:src/syscall_cpp.cpp **** 
  50:src/syscall_cpp.cpp **** }
  51:src/syscall_cpp.cpp **** 
  52:src/syscall_cpp.cpp **** Semaphore::~Semaphore() {
  65              		.loc 2 52 1 is_stmt 1
  66              		.cfi_startproc
  67              	.LVL2:
  68 0018 130101FF 		addi	sp,sp,-16
  69              		.cfi_def_cfa_offset 16
  70 001c 23348100 		sd	s0,8(sp)
  71              		.cfi_offset 8, -8
  72 0020 13040101 		addi	s0,sp,16
  73              		.cfi_def_cfa 8, 0
  53:src/syscall_cpp.cpp **** 
  54:src/syscall_cpp.cpp **** }
  74              		.loc 2 54 1 is_stmt 0
  75 0024 03348100 		ld	s0,8(sp)
  76              		.cfi_restore 8
  77              		.cfi_def_cfa 2, 16
  78 0028 13010101 		addi	sp,sp,16
  79              		.cfi_def_cfa_offset 0
  80 002c 67800000 		jr	ra
  81              		.cfi_endproc
  82              	.LFE21:
  84              		.globl	_ZN9SemaphoreD1Ev
  85              		.set	_ZN9SemaphoreD1Ev,_ZN9SemaphoreD2Ev
  86              		.align	2
  87              		.globl	_Znwm
  89              	_Znwm:
  90              	.LFB1:
   7:src/syscall_cpp.cpp ****     return mem_alloc(n);
  91              		.loc 2 7 31 is_stmt 1
  92              		.cfi_startproc
  93              	.LVL3:
  94 0030 130101FF 		addi	sp,sp,-16
  95              		.cfi_def_cfa_offset 16
  96 0034 23341100 		sd	ra,8(sp)
GAS LISTING /tmp/cchlcByh.s 			page 4


  97 0038 23308100 		sd	s0,0(sp)
  98              		.cfi_offset 1, -8
  99              		.cfi_offset 8, -16
 100 003c 13040101 		addi	s0,sp,16
 101              		.cfi_def_cfa 8, 0
   8:src/syscall_cpp.cpp **** }
 102              		.loc 2 8 5
   8:src/syscall_cpp.cpp **** }
 103              		.loc 2 8 21 is_stmt 0
 104 0040 97000000 		call	_Z9mem_allocm@plt
 104      E7800000 
 105              	.LVL4:
   9:src/syscall_cpp.cpp **** 
 106              		.loc 2 9 1
 107 0048 83308100 		ld	ra,8(sp)
 108              		.cfi_restore 1
 109 004c 03340100 		ld	s0,0(sp)
 110              		.cfi_restore 8
 111              		.cfi_def_cfa 2, 16
 112 0050 13010101 		addi	sp,sp,16
 113              		.cfi_def_cfa_offset 0
 114 0054 67800000 		jr	ra
 115              		.cfi_endproc
 116              	.LFE1:
 118              		.align	2
 119              		.globl	_Znam
 121              	_Znam:
 122              	.LFB2:
  12:src/syscall_cpp.cpp ****     return mem_alloc(n);
 123              		.loc 2 12 32 is_stmt 1
 124              		.cfi_startproc
 125              	.LVL5:
 126 0058 130101FF 		addi	sp,sp,-16
 127              		.cfi_def_cfa_offset 16
 128 005c 23341100 		sd	ra,8(sp)
 129 0060 23308100 		sd	s0,0(sp)
 130              		.cfi_offset 1, -8
 131              		.cfi_offset 8, -16
 132 0064 13040101 		addi	s0,sp,16
 133              		.cfi_def_cfa 8, 0
  13:src/syscall_cpp.cpp **** }
 134              		.loc 2 13 5
  13:src/syscall_cpp.cpp **** }
 135              		.loc 2 13 21 is_stmt 0
 136 0068 97000000 		call	_Z9mem_allocm@plt
 136      E7800000 
 137              	.LVL6:
  14:src/syscall_cpp.cpp **** 
 138              		.loc 2 14 1
 139 0070 83308100 		ld	ra,8(sp)
 140              		.cfi_restore 1
 141 0074 03340100 		ld	s0,0(sp)
 142              		.cfi_restore 8
 143              		.cfi_def_cfa 2, 16
 144 0078 13010101 		addi	sp,sp,16
 145              		.cfi_def_cfa_offset 0
 146 007c 67800000 		jr	ra
GAS LISTING /tmp/cchlcByh.s 			page 5


 147              		.cfi_endproc
 148              	.LFE2:
 150              		.align	2
 151              		.globl	_ZdlPv
 153              	_ZdlPv:
 154              	.LFB3:
  17:src/syscall_cpp.cpp ****     mem_free(p);
 155              		.loc 2 17 42 is_stmt 1
 156              		.cfi_startproc
 157              		.cfi_personality 0x9b,DW.ref.__gxx_personality_v0
 158              		.cfi_lsda 0x1b,.LLSDA3
 159              	.LVL7:
 160 0080 130101FF 		addi	sp,sp,-16
 161              		.cfi_def_cfa_offset 16
 162 0084 23341100 		sd	ra,8(sp)
 163 0088 23308100 		sd	s0,0(sp)
 164              		.cfi_offset 1, -8
 165              		.cfi_offset 8, -16
 166 008c 13040101 		addi	s0,sp,16
 167              		.cfi_def_cfa 8, 0
  18:src/syscall_cpp.cpp **** }
 168              		.loc 2 18 5
  18:src/syscall_cpp.cpp **** }
 169              		.loc 2 18 13 is_stmt 0
 170 0090 97000000 		call	_Z8mem_freePv@plt
 170      E7800000 
 171              	.LVL8:
  19:src/syscall_cpp.cpp **** 
 172              		.loc 2 19 1
 173 0098 83308100 		ld	ra,8(sp)
 174              		.cfi_restore 1
 175 009c 03340100 		ld	s0,0(sp)
 176              		.cfi_restore 8
 177              		.cfi_def_cfa 2, 16
 178 00a0 13010101 		addi	sp,sp,16
 179              		.cfi_def_cfa_offset 0
 180 00a4 67800000 		jr	ra
 181              		.cfi_endproc
 182              	.LFE3:
 183              		.globl	__gxx_personality_v0
 184              		.section	.gcc_except_table,"a",@progbits
 185              	.LLSDA3:
 186 0000 FF       		.byte	0xff
 187 0001 FF       		.byte	0xff
 188 0002 03       		.byte	0x3
 189 0003 00       		.byte	0
 190              		.text
 192              		.align	2
 193              		.globl	_ZN6ThreadD0Ev
 195              	_ZN6ThreadD0Ev:
 196              	.LFB11:
  31:src/syscall_cpp.cpp **** 
 197              		.loc 2 31 1 is_stmt 1
 198              		.cfi_startproc
 199              	.LVL9:
 200 00a8 130101FF 		addi	sp,sp,-16
 201              		.cfi_def_cfa_offset 16
GAS LISTING /tmp/cchlcByh.s 			page 6


 202 00ac 23341100 		sd	ra,8(sp)
 203 00b0 23308100 		sd	s0,0(sp)
 204              		.cfi_offset 1, -8
 205              		.cfi_offset 8, -16
 206 00b4 13040101 		addi	s0,sp,16
 207              		.cfi_def_cfa 8, 0
  33:src/syscall_cpp.cpp **** 
 208              		.loc 2 33 1 is_stmt 0
 209 00b8 97000000 		call	_ZdlPv
 209      E7800000 
 210              	.LVL10:
 211 00c0 83308100 		ld	ra,8(sp)
 212              		.cfi_restore 1
 213 00c4 03340100 		ld	s0,0(sp)
 214              		.cfi_restore 8
 215              		.cfi_def_cfa 2, 16
 216 00c8 13010101 		addi	sp,sp,16
 217              		.cfi_def_cfa_offset 0
 218 00cc 67800000 		jr	ra
 219              		.cfi_endproc
 220              	.LFE11:
 222              		.align	2
 223              		.globl	_ZN9SemaphoreD0Ev
 225              	_ZN9SemaphoreD0Ev:
 226              	.LFB23:
  52:src/syscall_cpp.cpp **** 
 227              		.loc 2 52 1 is_stmt 1
 228              		.cfi_startproc
 229              	.LVL11:
 230 00d0 130101FF 		addi	sp,sp,-16
 231              		.cfi_def_cfa_offset 16
 232 00d4 23341100 		sd	ra,8(sp)
 233 00d8 23308100 		sd	s0,0(sp)
 234              		.cfi_offset 1, -8
 235              		.cfi_offset 8, -16
 236 00dc 13040101 		addi	s0,sp,16
 237              		.cfi_def_cfa 8, 0
 238              		.loc 2 54 1 is_stmt 0
 239 00e0 97000000 		call	_ZdlPv
 239      E7800000 
 240              	.LVL12:
 241 00e8 83308100 		ld	ra,8(sp)
 242              		.cfi_restore 1
 243 00ec 03340100 		ld	s0,0(sp)
 244              		.cfi_restore 8
 245              		.cfi_def_cfa 2, 16
 246 00f0 13010101 		addi	sp,sp,16
 247              		.cfi_def_cfa_offset 0
 248 00f4 67800000 		jr	ra
 249              		.cfi_endproc
 250              	.LFE23:
 252              		.align	2
 253              		.globl	_ZdaPv
 255              	_ZdaPv:
 256              	.LFB4:
  22:src/syscall_cpp.cpp ****     mem_free(p);
 257              		.loc 2 22 42 is_stmt 1
GAS LISTING /tmp/cchlcByh.s 			page 7


 258              		.cfi_startproc
 259              		.cfi_personality 0x9b,DW.ref.__gxx_personality_v0
 260              		.cfi_lsda 0x1b,.LLSDA4
 261              	.LVL13:
 262 00f8 130101FF 		addi	sp,sp,-16
 263              		.cfi_def_cfa_offset 16
 264 00fc 23341100 		sd	ra,8(sp)
 265 0100 23308100 		sd	s0,0(sp)
 266              		.cfi_offset 1, -8
 267              		.cfi_offset 8, -16
 268 0104 13040101 		addi	s0,sp,16
 269              		.cfi_def_cfa 8, 0
  23:src/syscall_cpp.cpp **** }
 270              		.loc 2 23 5
  23:src/syscall_cpp.cpp **** }
 271              		.loc 2 23 13 is_stmt 0
 272 0108 97000000 		call	_Z8mem_freePv@plt
 272      E7800000 
 273              	.LVL14:
  24:src/syscall_cpp.cpp **** 
 274              		.loc 2 24 1
 275 0110 83308100 		ld	ra,8(sp)
 276              		.cfi_restore 1
 277 0114 03340100 		ld	s0,0(sp)
 278              		.cfi_restore 8
 279              		.cfi_def_cfa 2, 16
 280 0118 13010101 		addi	sp,sp,16
 281              		.cfi_def_cfa_offset 0
 282 011c 67800000 		jr	ra
 283              		.cfi_endproc
 284              	.LFE4:
 285              		.section	.gcc_except_table
 286              	.LLSDA4:
 287 0004 FF       		.byte	0xff
 288 0005 FF       		.byte	0xff
 289 0006 03       		.byte	0x3
 290 0007 00       		.byte	0
 291              		.text
 293              		.align	2
 294              		.globl	_ZN6ThreadC2EPFvPvES0_
 296              	_ZN6ThreadC2EPFvPvES0_:
 297              	.LFB6:
  27:src/syscall_cpp.cpp **** 
 298              		.loc 2 27 1 is_stmt 1
 299              		.cfi_startproc
 300              	.LVL15:
 301 0120 130101FF 		addi	sp,sp,-16
 302              		.cfi_def_cfa_offset 16
 303 0124 23348100 		sd	s0,8(sp)
 304              		.cfi_offset 8, -8
 305 0128 13040101 		addi	s0,sp,16
 306              		.cfi_def_cfa 8, 0
 307              	.LBB2:
  27:src/syscall_cpp.cpp **** 
 308              		.loc 2 27 47 is_stmt 0
 309 012c 97070000 		lla	a5,_ZTV6Thread+16
 309      93870700 
GAS LISTING /tmp/cchlcByh.s 			page 8


 310 0134 2330F500 		sd	a5,0(a0)
 311              	.LBE2:
  29:src/syscall_cpp.cpp **** 
 312              		.loc 2 29 1
 313 0138 03348100 		ld	s0,8(sp)
 314              		.cfi_restore 8
 315              		.cfi_def_cfa 2, 16
 316 013c 13010101 		addi	sp,sp,16
 317              		.cfi_def_cfa_offset 0
 318 0140 67800000 		jr	ra
 319              		.cfi_endproc
 320              	.LFE6:
 322              		.globl	_ZN6ThreadC1EPFvPvES0_
 323              		.set	_ZN6ThreadC1EPFvPvES0_,_ZN6ThreadC2EPFvPvES0_
 324              		.align	2
 325              		.globl	_ZN6Thread5startEv
 327              	_ZN6Thread5startEv:
 328              	.LFB12:
  35:src/syscall_cpp.cpp ****     return 0;
 329              		.loc 2 35 21 is_stmt 1
 330              		.cfi_startproc
 331              	.LVL16:
 332 0144 130101FF 		addi	sp,sp,-16
 333              		.cfi_def_cfa_offset 16
 334 0148 23348100 		sd	s0,8(sp)
 335              		.cfi_offset 8, -8
 336 014c 13040101 		addi	s0,sp,16
 337              		.cfi_def_cfa 8, 0
  36:src/syscall_cpp.cpp **** }
 338              		.loc 2 36 5
  37:src/syscall_cpp.cpp **** 
 339              		.loc 2 37 1 is_stmt 0
 340 0150 13050000 		li	a0,0
 341              	.LVL17:
 342 0154 03348100 		ld	s0,8(sp)
 343              		.cfi_restore 8
 344              		.cfi_def_cfa 2, 16
 345 0158 13010101 		addi	sp,sp,16
 346              		.cfi_def_cfa_offset 0
 347 015c 67800000 		jr	ra
 348              		.cfi_endproc
 349              	.LFE12:
 351              		.align	2
 352              		.globl	_ZN6Thread8dispatchEv
 354              	_ZN6Thread8dispatchEv:
 355              	.LFB13:
  39:src/syscall_cpp.cpp **** 
 356              		.loc 2 39 25 is_stmt 1
 357              		.cfi_startproc
 358 0160 130101FF 		addi	sp,sp,-16
 359              		.cfi_def_cfa_offset 16
 360 0164 23348100 		sd	s0,8(sp)
 361              		.cfi_offset 8, -8
 362 0168 13040101 		addi	s0,sp,16
 363              		.cfi_def_cfa 8, 0
  41:src/syscall_cpp.cpp **** 
 364              		.loc 2 41 1 is_stmt 0
GAS LISTING /tmp/cchlcByh.s 			page 9


 365 016c 03348100 		ld	s0,8(sp)
 366              		.cfi_restore 8
 367              		.cfi_def_cfa 2, 16
 368 0170 13010101 		addi	sp,sp,16
 369              		.cfi_def_cfa_offset 0
 370 0174 67800000 		jr	ra
 371              		.cfi_endproc
 372              	.LFE13:
 374              		.align	2
 375              		.globl	_ZN6ThreadC2Ev
 377              	_ZN6ThreadC2Ev:
 378              	.LFB15:
  43:src/syscall_cpp.cpp **** 
 379              		.loc 2 43 1 is_stmt 1
 380              		.cfi_startproc
 381              	.LVL18:
 382 0178 130101FF 		addi	sp,sp,-16
 383              		.cfi_def_cfa_offset 16
 384 017c 23348100 		sd	s0,8(sp)
 385              		.cfi_offset 8, -8
 386 0180 13040101 		addi	s0,sp,16
 387              		.cfi_def_cfa 8, 0
 388              	.LBB3:
  43:src/syscall_cpp.cpp **** 
 389              		.loc 2 43 16 is_stmt 0
 390 0184 97070000 		lla	a5,_ZTV6Thread+16
 390      93870700 
 391 018c 2330F500 		sd	a5,0(a0)
 392              	.LBE3:
  45:src/syscall_cpp.cpp **** 
 393              		.loc 2 45 1
 394 0190 03348100 		ld	s0,8(sp)
 395              		.cfi_restore 8
 396              		.cfi_def_cfa 2, 16
 397 0194 13010101 		addi	sp,sp,16
 398              		.cfi_def_cfa_offset 0
 399 0198 67800000 		jr	ra
 400              		.cfi_endproc
 401              	.LFE15:
 403              		.globl	_ZN6ThreadC1Ev
 404              		.set	_ZN6ThreadC1Ev,_ZN6ThreadC2Ev
 405              		.align	2
 406              		.globl	_ZN9SemaphoreC2Ej
 408              	_ZN9SemaphoreC2Ej:
 409              	.LFB18:
  48:src/syscall_cpp.cpp **** 
 410              		.loc 2 48 1 is_stmt 1
 411              		.cfi_startproc
 412              	.LVL19:
 413 019c 130101FF 		addi	sp,sp,-16
 414              		.cfi_def_cfa_offset 16
 415 01a0 23348100 		sd	s0,8(sp)
 416              		.cfi_offset 8, -8
 417 01a4 13040101 		addi	s0,sp,16
 418              		.cfi_def_cfa 8, 0
 419              	.LBB4:
  48:src/syscall_cpp.cpp **** 
GAS LISTING /tmp/cchlcByh.s 			page 10


 420              		.loc 2 48 39 is_stmt 0
 421 01a8 97070000 		lla	a5,_ZTV9Semaphore+16
 421      93870700 
 422 01b0 2330F500 		sd	a5,0(a0)
 423              	.LBE4:
  50:src/syscall_cpp.cpp **** 
 424              		.loc 2 50 1
 425 01b4 03348100 		ld	s0,8(sp)
 426              		.cfi_restore 8
 427              		.cfi_def_cfa 2, 16
 428 01b8 13010101 		addi	sp,sp,16
 429              		.cfi_def_cfa_offset 0
 430 01bc 67800000 		jr	ra
 431              		.cfi_endproc
 432              	.LFE18:
 434              		.globl	_ZN9SemaphoreC1Ej
 435              		.set	_ZN9SemaphoreC1Ej,_ZN9SemaphoreC2Ej
 436              		.align	2
 437              		.globl	_ZN9Semaphore4waitEv
 439              	_ZN9Semaphore4waitEv:
 440              	.LFB24:
  55:src/syscall_cpp.cpp **** 
  56:src/syscall_cpp.cpp **** int Semaphore::wait() {
 441              		.loc 2 56 23 is_stmt 1
 442              		.cfi_startproc
 443              	.LVL20:
 444 01c0 130101FF 		addi	sp,sp,-16
 445              		.cfi_def_cfa_offset 16
 446 01c4 23348100 		sd	s0,8(sp)
 447              		.cfi_offset 8, -8
 448 01c8 13040101 		addi	s0,sp,16
 449              		.cfi_def_cfa 8, 0
  57:src/syscall_cpp.cpp ****     return 0;
 450              		.loc 2 57 5
  58:src/syscall_cpp.cpp **** }
 451              		.loc 2 58 1 is_stmt 0
 452 01cc 13050000 		li	a0,0
 453              	.LVL21:
 454 01d0 03348100 		ld	s0,8(sp)
 455              		.cfi_restore 8
 456              		.cfi_def_cfa 2, 16
 457 01d4 13010101 		addi	sp,sp,16
 458              		.cfi_def_cfa_offset 0
 459 01d8 67800000 		jr	ra
 460              		.cfi_endproc
 461              	.LFE24:
 463              		.align	2
 464              		.globl	_ZN9Semaphore6signalEv
 466              	_ZN9Semaphore6signalEv:
 467              	.LFB25:
  59:src/syscall_cpp.cpp **** 
  60:src/syscall_cpp.cpp **** int Semaphore::signal() {
 468              		.loc 2 60 25 is_stmt 1
 469              		.cfi_startproc
 470              	.LVL22:
 471 01dc 130101FF 		addi	sp,sp,-16
 472              		.cfi_def_cfa_offset 16
GAS LISTING /tmp/cchlcByh.s 			page 11


 473 01e0 23348100 		sd	s0,8(sp)
 474              		.cfi_offset 8, -8
 475 01e4 13040101 		addi	s0,sp,16
 476              		.cfi_def_cfa 8, 0
  61:src/syscall_cpp.cpp ****     return 0;
 477              		.loc 2 61 5
  62:src/syscall_cpp.cpp **** }
 478              		.loc 2 62 1 is_stmt 0
 479 01e8 13050000 		li	a0,0
 480              	.LVL23:
 481 01ec 03348100 		ld	s0,8(sp)
 482              		.cfi_restore 8
 483              		.cfi_def_cfa 2, 16
 484 01f0 13010101 		addi	sp,sp,16
 485              		.cfi_def_cfa_offset 0
 486 01f4 67800000 		jr	ra
 487              		.cfi_endproc
 488              	.LFE25:
 490              		.align	2
 491              		.globl	_ZN9Semaphore7tryWaitEv
 493              	_ZN9Semaphore7tryWaitEv:
 494              	.LFB26:
  63:src/syscall_cpp.cpp **** 
  64:src/syscall_cpp.cpp **** int Semaphore::tryWait() {
 495              		.loc 2 64 26 is_stmt 1
 496              		.cfi_startproc
 497              	.LVL24:
 498 01f8 130101FF 		addi	sp,sp,-16
 499              		.cfi_def_cfa_offset 16
 500 01fc 23348100 		sd	s0,8(sp)
 501              		.cfi_offset 8, -8
 502 0200 13040101 		addi	s0,sp,16
 503              		.cfi_def_cfa 8, 0
  65:src/syscall_cpp.cpp ****     return 0;
 504              		.loc 2 65 5
  66:src/syscall_cpp.cpp **** }
 505              		.loc 2 66 1 is_stmt 0
 506 0204 13050000 		li	a0,0
 507              	.LVL25:
 508 0208 03348100 		ld	s0,8(sp)
 509              		.cfi_restore 8
 510              		.cfi_def_cfa 2, 16
 511 020c 13010101 		addi	sp,sp,16
 512              		.cfi_def_cfa_offset 0
 513 0210 67800000 		jr	ra
 514              		.cfi_endproc
 515              	.LFE26:
 517              		.weak	_ZTV6Thread
 518              		.section	.data.rel.ro.local._ZTV6Thread,"awG",@progbits,_ZTV6Thread,comdat
 519              		.align	3
 522              	_ZTV6Thread:
 523 0000 00000000 		.dword	0
 523      00000000 
 524 0008 00000000 		.dword	0
 524      00000000 
 525 0010 00000000 		.dword	_ZN6ThreadD1Ev
 525      00000000 
GAS LISTING /tmp/cchlcByh.s 			page 12


 526 0018 00000000 		.dword	_ZN6ThreadD0Ev
 526      00000000 
 527 0020 00000000 		.dword	_ZN6Thread3runEv
 527      00000000 
 528              		.weak	_ZTV9Semaphore
 529              		.section	.data.rel.ro.local._ZTV9Semaphore,"awG",@progbits,_ZTV9Semaphore,comdat
 530              		.align	3
 533              	_ZTV9Semaphore:
 534 0000 00000000 		.dword	0
 534      00000000 
 535 0008 00000000 		.dword	0
 535      00000000 
 536 0010 00000000 		.dword	_ZN9SemaphoreD1Ev
 536      00000000 
 537 0018 00000000 		.dword	_ZN9SemaphoreD0Ev
 537      00000000 
 538              		.text
 539              	.Letext0:
 540              		.file 3 "src/../h/../lib/hw.h"
 541              		.file 4 "src/../h/syscall_c.hpp"
 2414              		.align	3
 2417              	DW.ref.__gxx_personality_v0:
 2418 0000 00000000 		.dword	__gxx_personality_v0
 2418      00000000 
 2419              		.ident	"GCC: (Ubuntu 9.4.0-1ubuntu1~20.04) 9.4.0"
 2420              		.section	.note.GNU-stack,"",@progbits
GAS LISTING /tmp/cchlcByh.s 			page 13


DEFINED SYMBOLS
                            *ABS*:0000000000000000 syscall_cpp.cpp
     /tmp/cchlcByh.s:10     .text._ZN6Thread3runEv:0000000000000000 _ZN6Thread3runEv
     /tmp/cchlcByh.s:14     .text._ZN6Thread3runEv:0000000000000000 .L0 
     /tmp/cchlcByh.s:16     .text._ZN6Thread3runEv:0000000000000000 .L0 
     /tmp/cchlcByh.s:17     .text._ZN6Thread3runEv:0000000000000004 .L0 
     /tmp/cchlcByh.s:19     .text._ZN6Thread3runEv:0000000000000008 .L0 
     /tmp/cchlcByh.s:21     .text._ZN6Thread3runEv:000000000000000c .L0 
     /tmp/cchlcByh.s:23     .text._ZN6Thread3runEv:000000000000000c .L0 
     /tmp/cchlcByh.s:24     .text._ZN6Thread3runEv:0000000000000010 .L0 
     /tmp/cchlcByh.s:25     .text._ZN6Thread3runEv:0000000000000010 .L0 
     /tmp/cchlcByh.s:27     .text._ZN6Thread3runEv:0000000000000014 .L0 
     /tmp/cchlcByh.s:29     .text._ZN6Thread3runEv:0000000000000018 .L0 
     /tmp/cchlcByh.s:36     .text:0000000000000000 _ZN6ThreadD2Ev
     /tmp/cchlcByh.s:40     .text:0000000000000000 .L0 
     /tmp/cchlcByh.s:42     .text:0000000000000000 .L0 
     /tmp/cchlcByh.s:43     .text:0000000000000004 .L0 
     /tmp/cchlcByh.s:45     .text:0000000000000008 .L0 
     /tmp/cchlcByh.s:47     .text:000000000000000c .L0 
     /tmp/cchlcByh.s:49     .text:000000000000000c .L0 
     /tmp/cchlcByh.s:50     .text:0000000000000010 .L0 
     /tmp/cchlcByh.s:51     .text:0000000000000010 .L0 
     /tmp/cchlcByh.s:53     .text:0000000000000014 .L0 
     /tmp/cchlcByh.s:55     .text:0000000000000018 .L0 
     /tmp/cchlcByh.s:36     .text:0000000000000000 _ZN6ThreadD1Ev
     /tmp/cchlcByh.s:63     .text:0000000000000018 _ZN9SemaphoreD2Ev
     /tmp/cchlcByh.s:66     .text:0000000000000018 .L0 
     /tmp/cchlcByh.s:68     .text:0000000000000018 .L0 
     /tmp/cchlcByh.s:69     .text:000000000000001c .L0 
     /tmp/cchlcByh.s:71     .text:0000000000000020 .L0 
     /tmp/cchlcByh.s:73     .text:0000000000000024 .L0 
     /tmp/cchlcByh.s:75     .text:0000000000000024 .L0 
     /tmp/cchlcByh.s:76     .text:0000000000000028 .L0 
     /tmp/cchlcByh.s:77     .text:0000000000000028 .L0 
     /tmp/cchlcByh.s:79     .text:000000000000002c .L0 
     /tmp/cchlcByh.s:81     .text:0000000000000030 .L0 
     /tmp/cchlcByh.s:63     .text:0000000000000018 _ZN9SemaphoreD1Ev
     /tmp/cchlcByh.s:89     .text:0000000000000030 _Znwm
     /tmp/cchlcByh.s:92     .text:0000000000000030 .L0 
     /tmp/cchlcByh.s:94     .text:0000000000000030 .L0 
     /tmp/cchlcByh.s:95     .text:0000000000000034 .L0 
     /tmp/cchlcByh.s:98     .text:000000000000003c .L0 
     /tmp/cchlcByh.s:99     .text:000000000000003c .L0 
     /tmp/cchlcByh.s:101    .text:0000000000000040 .L0 
     /tmp/cchlcByh.s:103    .text:0000000000000040 .L0 
     /tmp/cchlcByh.s:104    .text:0000000000000040 .L0 
     /tmp/cchlcByh.s:107    .text:0000000000000048 .L0 
     /tmp/cchlcByh.s:108    .text:000000000000004c .L0 
     /tmp/cchlcByh.s:110    .text:0000000000000050 .L0 
     /tmp/cchlcByh.s:111    .text:0000000000000050 .L0 
     /tmp/cchlcByh.s:113    .text:0000000000000054 .L0 
     /tmp/cchlcByh.s:115    .text:0000000000000058 .L0 
     /tmp/cchlcByh.s:121    .text:0000000000000058 _Znam
     /tmp/cchlcByh.s:124    .text:0000000000000058 .L0 
     /tmp/cchlcByh.s:126    .text:0000000000000058 .L0 
     /tmp/cchlcByh.s:127    .text:000000000000005c .L0 
     /tmp/cchlcByh.s:130    .text:0000000000000064 .L0 
GAS LISTING /tmp/cchlcByh.s 			page 14


     /tmp/cchlcByh.s:131    .text:0000000000000064 .L0 
     /tmp/cchlcByh.s:133    .text:0000000000000068 .L0 
     /tmp/cchlcByh.s:135    .text:0000000000000068 .L0 
     /tmp/cchlcByh.s:136    .text:0000000000000068 .L0 
     /tmp/cchlcByh.s:139    .text:0000000000000070 .L0 
     /tmp/cchlcByh.s:140    .text:0000000000000074 .L0 
     /tmp/cchlcByh.s:142    .text:0000000000000078 .L0 
     /tmp/cchlcByh.s:143    .text:0000000000000078 .L0 
     /tmp/cchlcByh.s:145    .text:000000000000007c .L0 
     /tmp/cchlcByh.s:147    .text:0000000000000080 .L0 
     /tmp/cchlcByh.s:153    .text:0000000000000080 _ZdlPv
     /tmp/cchlcByh.s:156    .text:0000000000000080 .L0 
     /tmp/cchlcByh.s:2417   .data.rel.local.DW.ref.__gxx_personality_v0:0000000000000000 DW.ref.__gxx_personality_v0
     /tmp/cchlcByh.s:160    .text:0000000000000080 .L0 
     /tmp/cchlcByh.s:161    .text:0000000000000084 .L0 
     /tmp/cchlcByh.s:164    .text:000000000000008c .L0 
     /tmp/cchlcByh.s:165    .text:000000000000008c .L0 
     /tmp/cchlcByh.s:167    .text:0000000000000090 .L0 
     /tmp/cchlcByh.s:169    .text:0000000000000090 .L0 
     /tmp/cchlcByh.s:170    .text:0000000000000090 .L0 
     /tmp/cchlcByh.s:173    .text:0000000000000098 .L0 
     /tmp/cchlcByh.s:174    .text:000000000000009c .L0 
     /tmp/cchlcByh.s:176    .text:00000000000000a0 .L0 
     /tmp/cchlcByh.s:177    .text:00000000000000a0 .L0 
     /tmp/cchlcByh.s:179    .text:00000000000000a4 .L0 
     /tmp/cchlcByh.s:181    .text:00000000000000a8 .L0 
     /tmp/cchlcByh.s:195    .text:00000000000000a8 _ZN6ThreadD0Ev
     /tmp/cchlcByh.s:198    .text:00000000000000a8 .L0 
     /tmp/cchlcByh.s:200    .text:00000000000000a8 .L0 
     /tmp/cchlcByh.s:201    .text:00000000000000ac .L0 
     /tmp/cchlcByh.s:204    .text:00000000000000b4 .L0 
     /tmp/cchlcByh.s:205    .text:00000000000000b4 .L0 
     /tmp/cchlcByh.s:207    .text:00000000000000b8 .L0 
     /tmp/cchlcByh.s:209    .text:00000000000000b8 .L0 
     /tmp/cchlcByh.s:212    .text:00000000000000c4 .L0 
     /tmp/cchlcByh.s:214    .text:00000000000000c8 .L0 
     /tmp/cchlcByh.s:215    .text:00000000000000c8 .L0 
     /tmp/cchlcByh.s:217    .text:00000000000000cc .L0 
     /tmp/cchlcByh.s:219    .text:00000000000000d0 .L0 
     /tmp/cchlcByh.s:225    .text:00000000000000d0 _ZN9SemaphoreD0Ev
     /tmp/cchlcByh.s:228    .text:00000000000000d0 .L0 
     /tmp/cchlcByh.s:230    .text:00000000000000d0 .L0 
     /tmp/cchlcByh.s:231    .text:00000000000000d4 .L0 
     /tmp/cchlcByh.s:234    .text:00000000000000dc .L0 
     /tmp/cchlcByh.s:235    .text:00000000000000dc .L0 
     /tmp/cchlcByh.s:237    .text:00000000000000e0 .L0 
     /tmp/cchlcByh.s:239    .text:00000000000000e0 .L0 
     /tmp/cchlcByh.s:242    .text:00000000000000ec .L0 
     /tmp/cchlcByh.s:244    .text:00000000000000f0 .L0 
     /tmp/cchlcByh.s:245    .text:00000000000000f0 .L0 
     /tmp/cchlcByh.s:247    .text:00000000000000f4 .L0 
     /tmp/cchlcByh.s:249    .text:00000000000000f8 .L0 
     /tmp/cchlcByh.s:255    .text:00000000000000f8 _ZdaPv
     /tmp/cchlcByh.s:258    .text:00000000000000f8 .L0 
     /tmp/cchlcByh.s:262    .text:00000000000000f8 .L0 
     /tmp/cchlcByh.s:263    .text:00000000000000fc .L0 
     /tmp/cchlcByh.s:266    .text:0000000000000104 .L0 
GAS LISTING /tmp/cchlcByh.s 			page 15


     /tmp/cchlcByh.s:267    .text:0000000000000104 .L0 
     /tmp/cchlcByh.s:269    .text:0000000000000108 .L0 
     /tmp/cchlcByh.s:271    .text:0000000000000108 .L0 
     /tmp/cchlcByh.s:272    .text:0000000000000108 .L0 
     /tmp/cchlcByh.s:275    .text:0000000000000110 .L0 
     /tmp/cchlcByh.s:276    .text:0000000000000114 .L0 
     /tmp/cchlcByh.s:278    .text:0000000000000118 .L0 
     /tmp/cchlcByh.s:279    .text:0000000000000118 .L0 
     /tmp/cchlcByh.s:281    .text:000000000000011c .L0 
     /tmp/cchlcByh.s:283    .text:0000000000000120 .L0 
     /tmp/cchlcByh.s:296    .text:0000000000000120 _ZN6ThreadC2EPFvPvES0_
     /tmp/cchlcByh.s:299    .text:0000000000000120 .L0 
     /tmp/cchlcByh.s:301    .text:0000000000000120 .L0 
     /tmp/cchlcByh.s:302    .text:0000000000000124 .L0 
     /tmp/cchlcByh.s:304    .text:0000000000000128 .L0 
     /tmp/cchlcByh.s:306    .text:000000000000012c .L0 
     /tmp/cchlcByh.s:522    .data.rel.ro.local._ZTV6Thread:0000000000000000 _ZTV6Thread
     /tmp/cchlcByh.s:309    .text:000000000000012c .L0 
     /tmp/cchlcByh.s:313    .text:0000000000000138 .L0 
     /tmp/cchlcByh.s:314    .text:000000000000013c .L0 
     /tmp/cchlcByh.s:315    .text:000000000000013c .L0 
     /tmp/cchlcByh.s:317    .text:0000000000000140 .L0 
     /tmp/cchlcByh.s:319    .text:0000000000000144 .L0 
     /tmp/cchlcByh.s:296    .text:0000000000000120 _ZN6ThreadC1EPFvPvES0_
     /tmp/cchlcByh.s:327    .text:0000000000000144 _ZN6Thread5startEv
     /tmp/cchlcByh.s:330    .text:0000000000000144 .L0 
     /tmp/cchlcByh.s:332    .text:0000000000000144 .L0 
     /tmp/cchlcByh.s:333    .text:0000000000000148 .L0 
     /tmp/cchlcByh.s:335    .text:000000000000014c .L0 
     /tmp/cchlcByh.s:337    .text:0000000000000150 .L0 
     /tmp/cchlcByh.s:339    .text:0000000000000150 .L0 
     /tmp/cchlcByh.s:340    .text:0000000000000150 .L0 
     /tmp/cchlcByh.s:343    .text:0000000000000158 .L0 
     /tmp/cchlcByh.s:344    .text:0000000000000158 .L0 
     /tmp/cchlcByh.s:346    .text:000000000000015c .L0 
     /tmp/cchlcByh.s:348    .text:0000000000000160 .L0 
     /tmp/cchlcByh.s:354    .text:0000000000000160 _ZN6Thread8dispatchEv
     /tmp/cchlcByh.s:357    .text:0000000000000160 .L0 
     /tmp/cchlcByh.s:358    .text:0000000000000160 .L0 
     /tmp/cchlcByh.s:359    .text:0000000000000164 .L0 
     /tmp/cchlcByh.s:361    .text:0000000000000168 .L0 
     /tmp/cchlcByh.s:363    .text:000000000000016c .L0 
     /tmp/cchlcByh.s:365    .text:000000000000016c .L0 
     /tmp/cchlcByh.s:366    .text:0000000000000170 .L0 
     /tmp/cchlcByh.s:367    .text:0000000000000170 .L0 
     /tmp/cchlcByh.s:369    .text:0000000000000174 .L0 
     /tmp/cchlcByh.s:371    .text:0000000000000178 .L0 
     /tmp/cchlcByh.s:377    .text:0000000000000178 _ZN6ThreadC2Ev
     /tmp/cchlcByh.s:380    .text:0000000000000178 .L0 
     /tmp/cchlcByh.s:382    .text:0000000000000178 .L0 
     /tmp/cchlcByh.s:383    .text:000000000000017c .L0 
     /tmp/cchlcByh.s:385    .text:0000000000000180 .L0 
     /tmp/cchlcByh.s:387    .text:0000000000000184 .L0 
     /tmp/cchlcByh.s:390    .text:0000000000000184 .L0 
     /tmp/cchlcByh.s:394    .text:0000000000000190 .L0 
     /tmp/cchlcByh.s:395    .text:0000000000000194 .L0 
     /tmp/cchlcByh.s:396    .text:0000000000000194 .L0 
GAS LISTING /tmp/cchlcByh.s 			page 16


     /tmp/cchlcByh.s:398    .text:0000000000000198 .L0 
     /tmp/cchlcByh.s:400    .text:000000000000019c .L0 
     /tmp/cchlcByh.s:377    .text:0000000000000178 _ZN6ThreadC1Ev
     /tmp/cchlcByh.s:408    .text:000000000000019c _ZN9SemaphoreC2Ej
     /tmp/cchlcByh.s:411    .text:000000000000019c .L0 
     /tmp/cchlcByh.s:413    .text:000000000000019c .L0 
     /tmp/cchlcByh.s:414    .text:00000000000001a0 .L0 
     /tmp/cchlcByh.s:416    .text:00000000000001a4 .L0 
     /tmp/cchlcByh.s:418    .text:00000000000001a8 .L0 
     /tmp/cchlcByh.s:533    .data.rel.ro.local._ZTV9Semaphore:0000000000000000 _ZTV9Semaphore
     /tmp/cchlcByh.s:421    .text:00000000000001a8 .L0 
     /tmp/cchlcByh.s:425    .text:00000000000001b4 .L0 
     /tmp/cchlcByh.s:426    .text:00000000000001b8 .L0 
     /tmp/cchlcByh.s:427    .text:00000000000001b8 .L0 
     /tmp/cchlcByh.s:429    .text:00000000000001bc .L0 
     /tmp/cchlcByh.s:431    .text:00000000000001c0 .L0 
     /tmp/cchlcByh.s:408    .text:000000000000019c _ZN9SemaphoreC1Ej
     /tmp/cchlcByh.s:439    .text:00000000000001c0 _ZN9Semaphore4waitEv
     /tmp/cchlcByh.s:442    .text:00000000000001c0 .L0 
     /tmp/cchlcByh.s:444    .text:00000000000001c0 .L0 
     /tmp/cchlcByh.s:445    .text:00000000000001c4 .L0 
     /tmp/cchlcByh.s:447    .text:00000000000001c8 .L0 
     /tmp/cchlcByh.s:449    .text:00000000000001cc .L0 
     /tmp/cchlcByh.s:451    .text:00000000000001cc .L0 
     /tmp/cchlcByh.s:452    .text:00000000000001cc .L0 
     /tmp/cchlcByh.s:455    .text:00000000000001d4 .L0 
     /tmp/cchlcByh.s:456    .text:00000000000001d4 .L0 
     /tmp/cchlcByh.s:458    .text:00000000000001d8 .L0 
     /tmp/cchlcByh.s:460    .text:00000000000001dc .L0 
     /tmp/cchlcByh.s:466    .text:00000000000001dc _ZN9Semaphore6signalEv
     /tmp/cchlcByh.s:469    .text:00000000000001dc .L0 
     /tmp/cchlcByh.s:471    .text:00000000000001dc .L0 
     /tmp/cchlcByh.s:472    .text:00000000000001e0 .L0 
     /tmp/cchlcByh.s:474    .text:00000000000001e4 .L0 
     /tmp/cchlcByh.s:476    .text:00000000000001e8 .L0 
     /tmp/cchlcByh.s:478    .text:00000000000001e8 .L0 
     /tmp/cchlcByh.s:479    .text:00000000000001e8 .L0 
     /tmp/cchlcByh.s:482    .text:00000000000001f0 .L0 
     /tmp/cchlcByh.s:483    .text:00000000000001f0 .L0 
     /tmp/cchlcByh.s:485    .text:00000000000001f4 .L0 
     /tmp/cchlcByh.s:487    .text:00000000000001f8 .L0 
     /tmp/cchlcByh.s:493    .text:00000000000001f8 _ZN9Semaphore7tryWaitEv
     /tmp/cchlcByh.s:496    .text:00000000000001f8 .L0 
     /tmp/cchlcByh.s:498    .text:00000000000001f8 .L0 
     /tmp/cchlcByh.s:499    .text:00000000000001fc .L0 
     /tmp/cchlcByh.s:501    .text:0000000000000200 .L0 
     /tmp/cchlcByh.s:503    .text:0000000000000204 .L0 
     /tmp/cchlcByh.s:505    .text:0000000000000204 .L0 
     /tmp/cchlcByh.s:506    .text:0000000000000204 .L0 
     /tmp/cchlcByh.s:509    .text:000000000000020c .L0 
     /tmp/cchlcByh.s:510    .text:000000000000020c .L0 
     /tmp/cchlcByh.s:512    .text:0000000000000210 .L0 
     /tmp/cchlcByh.s:514    .text:0000000000000214 .L0 
     /tmp/cchlcByh.s:32     .text._ZN6Thread3runEv:0000000000000018 .L0 
     /tmp/cchlcByh.s:542    .text:0000000000000214 .L0 
     /tmp/cchlcByh.s:309    .text:000000000000012c .L0 
     /tmp/cchlcByh.s:390    .text:0000000000000184 .L0 
GAS LISTING /tmp/cchlcByh.s 			page 17


     /tmp/cchlcByh.s:421    .text:00000000000001a8 .L0 
     /tmp/cchlcByh.s:1382   .debug_abbrev:0000000000000000 .Ldebug_abbrev0
     /tmp/cchlcByh.s:2333   .debug_str:00000000000001bf .LASF66
     /tmp/cchlcByh.s:2269   .debug_str:0000000000000016 .LASF67
     /tmp/cchlcByh.s:2397   .debug_str:000000000000043f .LASF68
     /tmp/cchlcByh.s:2255   .debug_ranges:0000000000000000 .Ldebug_ranges0
     /tmp/cchlcByh.s:2263   .debug_line:0000000000000000 .Ldebug_line0
     /tmp/cchlcByh.s:2349   .debug_str:00000000000002ef .LASF0
     /tmp/cchlcByh.s:2325   .debug_str:0000000000000193 .LASF1
     /tmp/cchlcByh.s:2313   .debug_str:0000000000000140 .LASF2
     /tmp/cchlcByh.s:2285   .debug_str:0000000000000075 .LASF4
     /tmp/cchlcByh.s:2323   .debug_str:0000000000000181 .LASF3
     /tmp/cchlcByh.s:2271   .debug_str:000000000000002a .LASF5
     /tmp/cchlcByh.s:2401   .debug_str:000000000000046e .LASF6
     /tmp/cchlcByh.s:2305   .debug_str:0000000000000107 .LASF7
     /tmp/cchlcByh.s:2361   .debug_str:0000000000000342 .LASF8
     /tmp/cchlcByh.s:2283   .debug_str:0000000000000067 .LASF9
     /tmp/cchlcByh.s:2409   .debug_str:00000000000004a1 .LASF10
     /tmp/cchlcByh.s:2309   .debug_str:000000000000012a .LASF11
     /tmp/cchlcByh.s:2391   .debug_str:000000000000041b .LASF12
     /tmp/cchlcByh.s:2367   .debug_str:0000000000000371 .LASF13
     /tmp/cchlcByh.s:2327   .debug_str:00000000000001a6 .LASF14
     /tmp/cchlcByh.s:2295   .debug_str:00000000000000ae .LASF15
     /tmp/cchlcByh.s:2363   .debug_str:0000000000000352 .LASF16
     /tmp/cchlcByh.s:2375   .debug_str:00000000000003a6 .LASF17
     /tmp/cchlcByh.s:2365   .debug_str:0000000000000368 .LASF18
     /tmp/cchlcByh.s:2275   .debug_str:0000000000000048 .LASF19
     /tmp/cchlcByh.s:2359   .debug_str:000000000000033d .LASF20
     /tmp/cchlcByh.s:2405   .debug_str:0000000000000487 .LASF27
     /tmp/cchlcByh.s:2291   .debug_str:0000000000000094 .LASF29
     /tmp/cchlcByh.s:2307   .debug_str:000000000000011a .LASF31
     /tmp/cchlcByh.s:2357   .debug_str:000000000000032b .LASF33
     /tmp/cchlcByh.s:2279   .debug_str:0000000000000055 .LASF35
     /tmp/cchlcByh.s:2399   .debug_str:000000000000045c .LASF37
     /tmp/cchlcByh.s:2343   .debug_str:00000000000002c9 .LASF21
     /tmp/cchlcByh.s:2299   .debug_str:00000000000000db .LASF23
     /tmp/cchlcByh.s:2281   .debug_str:0000000000000060 .LASF22
     /tmp/cchlcByh.s:2337   .debug_str:0000000000000292 .LASF24
     /tmp/cchlcByh.s:2317   .debug_str:0000000000000164 .LASF25
     /tmp/cchlcByh.s:2389   .debug_str:0000000000000403 .LASF26
     /tmp/cchlcByh.s:2371   .debug_str:000000000000038a .LASF42
     /tmp/cchlcByh.s:2351   .debug_str:00000000000002fc .LASF69
     /tmp/cchlcByh.s:2311   .debug_str:0000000000000139 .LASF28
     /tmp/cchlcByh.s:2387   .debug_str:00000000000003f1 .LASF30
     /tmp/cchlcByh.s:2265   .debug_str:0000000000000000 .LASF32
     /tmp/cchlcByh.s:2297   .debug_str:00000000000000c4 .LASF34
     /tmp/cchlcByh.s:2329   .debug_str:00000000000001b2 .LASF36
     /tmp/cchlcByh.s:2347   .debug_str:00000000000002e0 .LASF38
     /tmp/cchlcByh.s:2301   .debug_str:00000000000000f0 .LASF39
     /tmp/cchlcByh.s:2289   .debug_str:0000000000000081 .LASF40
     /tmp/cchlcByh.s:2267   .debug_str:000000000000000d .LASF70
     /tmp/cchlcByh.s:2315   .debug_str:000000000000014e .LASF71
     /tmp/cchlcByh.s:2321   .debug_str:0000000000000172 .LASF41
     /tmp/cchlcByh.s:2303   .debug_str:00000000000000f6 .LASF72
     /tmp/cchlcByh.s:2331   .debug_str:00000000000001ba .LASF43
     /tmp/cchlcByh.s:494    .text:00000000000001f8 .LFB26
     /tmp/cchlcByh.s:515    .text:0000000000000214 .LFE26
GAS LISTING /tmp/cchlcByh.s 			page 18


     /tmp/cchlcByh.s:2287   .debug_str:000000000000007c .LASF44
     /tmp/cchlcByh.s:2100   .debug_loc:0000000000000000 .LLST9
     /tmp/cchlcByh.s:467    .text:00000000000001dc .LFB25
     /tmp/cchlcByh.s:488    .text:00000000000001f8 .LFE25
     /tmp/cchlcByh.s:2114   .debug_loc:0000000000000039 .LLST8
     /tmp/cchlcByh.s:440    .text:00000000000001c0 .LFB24
     /tmp/cchlcByh.s:461    .text:00000000000001dc .LFE24
     /tmp/cchlcByh.s:2128   .debug_loc:0000000000000072 .LLST7
     /tmp/cchlcByh.s:2379   .debug_str:00000000000003c0 .LASF45
     /tmp/cchlcByh.s:2345   .debug_str:00000000000002ce .LASF46
     /tmp/cchlcByh.s:226    .text:00000000000000d0 .LFB23
     /tmp/cchlcByh.s:250    .text:00000000000000f8 .LFE23
     /tmp/cchlcByh.s:2142   .debug_loc:00000000000000ab .LLST4
     /tmp/cchlcByh.s:240    .text:00000000000000e8 .LVL12
     /tmp/cchlcByh.s:2339   .debug_str:00000000000002a9 .LASF47
     /tmp/cchlcByh.s:64     .text:0000000000000018 .LFB21
     /tmp/cchlcByh.s:82     .text:0000000000000030 .LFE21
     /tmp/cchlcByh.s:2293   .debug_str:00000000000000a9 .LASF52
     /tmp/cchlcByh.s:2377   .debug_str:00000000000003ae .LASF48
     /tmp/cchlcByh.s:409    .text:000000000000019c .LFB18
     /tmp/cchlcByh.s:432    .text:00000000000001c0 .LFE18
     /tmp/cchlcByh.s:2353   .debug_str:000000000000030c .LASF49
     /tmp/cchlcByh.s:378    .text:0000000000000178 .LFB15
     /tmp/cchlcByh.s:401    .text:000000000000019c .LFE15
     /tmp/cchlcByh.s:355    .text:0000000000000160 .LFB13
     /tmp/cchlcByh.s:372    .text:0000000000000178 .LFE13
     /tmp/cchlcByh.s:328    .text:0000000000000144 .LFB12
     /tmp/cchlcByh.s:349    .text:0000000000000160 .LFE12
     /tmp/cchlcByh.s:2156   .debug_loc:00000000000000e4 .LLST6
     /tmp/cchlcByh.s:2335   .debug_str:0000000000000283 .LASF50
     /tmp/cchlcByh.s:196    .text:00000000000000a8 .LFB11
     /tmp/cchlcByh.s:220    .text:00000000000000d0 .LFE11
     /tmp/cchlcByh.s:2170   .debug_loc:000000000000011d .LLST3
     /tmp/cchlcByh.s:210    .text:00000000000000c0 .LVL10
     /tmp/cchlcByh.s:2385   .debug_str:00000000000003e2 .LASF51
     /tmp/cchlcByh.s:37     .text:0000000000000000 .LFB9
     /tmp/cchlcByh.s:56     .text:0000000000000018 .LFE9
     /tmp/cchlcByh.s:2273   .debug_str:0000000000000031 .LASF53
     /tmp/cchlcByh.s:297    .text:0000000000000120 .LFB6
     /tmp/cchlcByh.s:320    .text:0000000000000144 .LFE6
     /tmp/cchlcByh.s:2373   .debug_str:0000000000000393 .LASF54
     /tmp/cchlcByh.s:2277   .debug_str:000000000000004e .LASF55
     /tmp/cchlcByh.s:256    .text:00000000000000f8 .LFB4
     /tmp/cchlcByh.s:284    .text:0000000000000120 .LFE4
     /tmp/cchlcByh.s:2184   .debug_loc:0000000000000156 .LLST5
     /tmp/cchlcByh.s:273    .text:0000000000000110 .LVL14
     /tmp/cchlcByh.s:2355   .debug_str:000000000000031b .LASF56
     /tmp/cchlcByh.s:2393   .debug_str:000000000000042b .LASF57
     /tmp/cchlcByh.s:154    .text:0000000000000080 .LFB3
     /tmp/cchlcByh.s:182    .text:00000000000000a8 .LFE3
     /tmp/cchlcByh.s:2198   .debug_loc:000000000000018f .LLST2
     /tmp/cchlcByh.s:171    .text:0000000000000098 .LVL8
     /tmp/cchlcByh.s:2407   .debug_str:0000000000000491 .LASF58
     /tmp/cchlcByh.s:2319   .debug_str:000000000000016c .LASF59
     /tmp/cchlcByh.s:122    .text:0000000000000058 .LFB2
     /tmp/cchlcByh.s:148    .text:0000000000000080 .LFE2
     /tmp/cchlcByh.s:2212   .debug_loc:00000000000001c8 .LLST1
GAS LISTING /tmp/cchlcByh.s 			page 19


     /tmp/cchlcByh.s:137    .text:0000000000000070 .LVL6
     /tmp/cchlcByh.s:2395   .debug_str:0000000000000432 .LASF60
     /tmp/cchlcByh.s:2403   .debug_str:0000000000000481 .LASF61
     /tmp/cchlcByh.s:90     .text:0000000000000030 .LFB1
     /tmp/cchlcByh.s:116    .text:0000000000000058 .LFE1
     /tmp/cchlcByh.s:2226   .debug_loc:0000000000000201 .LLST0
     /tmp/cchlcByh.s:105    .text:0000000000000048 .LVL4
     /tmp/cchlcByh.s:11     .text._ZN6Thread3runEv:0000000000000000 .LFB0
     /tmp/cchlcByh.s:30     .text._ZN6Thread3runEv:0000000000000018 .LFE0
     /tmp/cchlcByh.s:2381   .debug_str:00000000000003ca .LASF62
     /tmp/cchlcByh.s:2369   .debug_str:0000000000000381 .LASF64
     /tmp/cchlcByh.s:2341   .debug_str:00000000000002bb .LASF63
     /tmp/cchlcByh.s:2383   .debug_str:00000000000003d8 .LASF65
     /tmp/cchlcByh.s:497    .text:00000000000001f8 .LVL24
     /tmp/cchlcByh.s:507    .text:0000000000000208 .LVL25
     /tmp/cchlcByh.s:470    .text:00000000000001dc .LVL22
     /tmp/cchlcByh.s:480    .text:00000000000001ec .LVL23
     /tmp/cchlcByh.s:443    .text:00000000000001c0 .LVL20
     /tmp/cchlcByh.s:453    .text:00000000000001d0 .LVL21
     /tmp/cchlcByh.s:229    .text:00000000000000d0 .LVL11
     /tmp/cchlcByh.s:331    .text:0000000000000144 .LVL16
     /tmp/cchlcByh.s:341    .text:0000000000000154 .LVL17
     /tmp/cchlcByh.s:199    .text:00000000000000a8 .LVL9
     /tmp/cchlcByh.s:261    .text:00000000000000f8 .LVL13
     /tmp/cchlcByh.s:159    .text:0000000000000080 .LVL7
     /tmp/cchlcByh.s:125    .text:0000000000000058 .LVL5
     /tmp/cchlcByh.s:93     .text:0000000000000030 .LVL3
     /tmp/cchlcByh.s:543    .debug_info:0000000000000000 .Ldebug_info0
     /tmp/cchlcByh.s:5      .text:0000000000000000 .Ltext0
     /tmp/cchlcByh.s:539    .text:0000000000000214 .Letext0
     /tmp/cchlcByh.s:185    .gcc_except_table:0000000000000000 .LLSDA3
     /tmp/cchlcByh.s:286    .gcc_except_table:0000000000000004 .LLSDA4

UNDEFINED SYMBOLS
_Z9mem_allocm
_Z8mem_freePv
__gxx_personality_v0
